

Microchip MPLAB XC8 Assembler V2.46 build 20240104201356 
                                                                                               Mon May 06 21:03:40 2024

Microchip MPLAB XC8 C Compiler v2.46 (Free license) build 20240104201356 Og1 
     1                           	processor	16F873A
     2                           	pagewidth 120
     3                           	opt	flic
     4                           	psect	strings,global,class=STRING,delta=2,noexec
     5                           	psect	cinit,global,class=CODE,merge=1,delta=2
     6                           	psect	bssBANK0,global,class=BANK0,space=1,delta=1,noexec
     7                           	psect	bssBANK1,global,class=BANK1,space=1,delta=1,noexec
     8                           	psect	clrtext,global,class=CODE,delta=2
     9                           	psect	cstackBANK1,global,class=BANK1,space=1,delta=1,noexec
    10                           	psect	cstackCOMMON,global,class=COMMON,space=1,delta=1,noexec
    11                           	psect	cstackBANK0,global,class=BANK0,space=1,delta=1,noexec
    12                           	psect	maintext,global,class=CODE,split=1,delta=2
    13                           	psect	text1,local,class=CODE,merge=1,delta=2,group=2
    14                           	psect	text2,local,class=CODE,merge=1,delta=2,group=2
    15                           	psect	text3,local,class=CODE,merge=1,delta=2,group=1
    16                           	psect	text4,local,class=CODE,merge=1,delta=2
    17                           	psect	text5,local,class=CODE,merge=1,delta=2
    18                           	psect	text6,local,class=CODE,merge=1,delta=2
    19                           	psect	text7,local,class=CODE,merge=1,delta=2
    20                           	psect	text8,local,class=CODE,merge=1,delta=2
    21                           	psect	text9,local,class=CODE,merge=1,delta=2
    22                           	psect	text10,local,class=CODE,merge=1,delta=2
    23                           	psect	text11,local,class=CODE,merge=1,delta=2
    24                           	psect	text12,local,class=CODE,merge=1,delta=2
    25                           	psect	text13,local,class=CODE,merge=1,delta=2
    26                           	psect	text14,local,class=CODE,merge=1,delta=2
    27                           	psect	text15,local,class=CODE,merge=1,delta=2
    28                           	psect	text16,local,class=CODE,merge=1,delta=2
    29                           	psect	text17,local,class=CODE,merge=1,delta=2
    30                           	psect	text18,local,class=CODE,merge=1,delta=2
    31                           	psect	text19,local,class=CODE,merge=1,delta=2
    32                           	psect	text20,local,class=CODE,merge=1,delta=2,group=1
    33                           	psect	text21,local,class=CODE,merge=1,delta=2
    34                           	psect	intentry,global,class=CODE,delta=2
    35                           	psect	text22,local,class=CODE,merge=1,delta=2
    36                           	psect	text23,local,class=CODE,merge=1,delta=2
    37                           	psect	text24,local,class=CODE,merge=1,delta=2
    38                           	psect	text25,local,class=CODE,merge=1,delta=2
    39                           	psect	text26,local,class=CODE,merge=1,delta=2
    40                           	psect	text27,local,class=CODE,merge=1,delta=2
    41                           	psect	text28,local,class=CODE,merge=1,delta=2
    42                           	psect	text29,local,class=CODE,merge=1,delta=2
    43                           	psect	text30,local,class=CODE,merge=1,delta=2
    44                           	psect	config,global,abs,ovrld,class=CONFIG,space=4,delta=2,noexec
    45                           	dabs	1,0x7E,2
    46     0000                     
    47                           ; Generated 12/10/2023 GMT
    48                           ; 
    49                           ; Copyright © 2023, Microchip Technology Inc. and its subsidiaries ("Microchip")
    50                           ; All rights reserved.
    51                           ; 
    52                           ; This software is developed by Microchip Technology Inc. and its subsidiaries ("Microch
      +                          ip").
    53                           ; 
    54                           ; Redistribution and use in source and binary forms, with or without modification, are
    55                           ; permitted provided that the following conditions are met:
    56                           ; 
    57                           ;     1. Redistributions of source code must retain the above copyright notice, this lis
      +                          t of
    58                           ;        conditions and the following disclaimer.
    59                           ; 
    60                           ;     2. Redistributions in binary form must reproduce the above copyright notice, this 
      +                          list
    61                           ;        of conditions and the following disclaimer in the documentation and/or other
    62                           ;        materials provided with the distribution. Publication is not required when
    63                           ;        this file is used in an embedded application.
    64                           ; 
    65                           ;     3. Microchip's name may not be used to endorse or promote products derived from th
      +                          is
    66                           ;        software without specific prior written permission.
    67                           ; 
    68                           ; THIS SOFTWARE IS PROVIDED BY MICROCHIP "AS IS" AND ANY EXPRESS OR IMPLIED WARRANTIES,
    69                           ; INCLUDING, BUT NOT LIMITED TO, THE IMPLIED WARRANTIES OF MERCHANTABILITY AND FITNESS F
      +                          OR
    70                           ; PURPOSE ARE DISCLAIMED.  IN NO EVENT SHALL MICROCHIP BE LIABLE FOR ANY DIRECT, INDIREC
      +                          T,
    71                           ; INCIDENTAL, SPECIAL, EXEMPLARY, OR CONSEQUENTIAL DAMAGES (INCLUDING BUT NOT LIMITED TO
    72                           ; PROCUREMENT OF SUBSTITUTE GOODS OR SERVICES; LOSS OF USE, DATA OR PROFITS; OR BUSINESS
    73                           ; INTERRUPTION) HOWSOEVER CAUSED AND ON ANY THEORY OF LIABILITY, WHETHER IN CONTRACT, ST
      +                          RICT
    74                           ; LIABILITY, OR TORT (INCLUDING NEGLIGENCE OR OTHERWISE) ARISING IN ANY WAY OUT OF THE U
      +                          SE OF
    75                           ; THIS SOFTWARE, EVEN IF ADVISED OF THE POSSIBILITY OF SUCH DAMAGE.
    76                           ; 
    77                           ; 
    78                           ; Code-generator required, PIC16F873A Definitions
    79                           ; 
    80                           ; SFR Addresses
    81     0000                     	;# 
    82     0001                     	;# 
    83     0002                     	;# 
    84     0003                     	;# 
    85     0004                     	;# 
    86     0005                     	;# 
    87     0006                     	;# 
    88     0007                     	;# 
    89     000A                     	;# 
    90     000B                     	;# 
    91     000C                     	;# 
    92     000D                     	;# 
    93     000E                     	;# 
    94     000E                     	;# 
    95     000F                     	;# 
    96     0010                     	;# 
    97     0011                     	;# 
    98     0012                     	;# 
    99     0013                     	;# 
   100     0014                     	;# 
   101     0015                     	;# 
   102     0015                     	;# 
   103     0016                     	;# 
   104     0017                     	;# 
   105     0018                     	;# 
   106     0019                     	;# 
   107     001A                     	;# 
   108     001B                     	;# 
   109     001B                     	;# 
   110     001C                     	;# 
   111     001D                     	;# 
   112     001E                     	;# 
   113     001F                     	;# 
   114     0081                     	;# 
   115     0085                     	;# 
   116     0086                     	;# 
   117     0087                     	;# 
   118     008C                     	;# 
   119     008D                     	;# 
   120     008E                     	;# 
   121     0091                     	;# 
   122     0092                     	;# 
   123     0093                     	;# 
   124     0094                     	;# 
   125     0098                     	;# 
   126     0099                     	;# 
   127     009C                     	;# 
   128     009D                     	;# 
   129     009E                     	;# 
   130     009F                     	;# 
   131     010C                     	;# 
   132     010D                     	;# 
   133     010E                     	;# 
   134     010F                     	;# 
   135     018C                     	;# 
   136     018D                     	;# 
   137     0000                     	;# 
   138     0001                     	;# 
   139     0002                     	;# 
   140     0003                     	;# 
   141     0004                     	;# 
   142     0005                     	;# 
   143     0006                     	;# 
   144     0007                     	;# 
   145     000A                     	;# 
   146     000B                     	;# 
   147     000C                     	;# 
   148     000D                     	;# 
   149     000E                     	;# 
   150     000E                     	;# 
   151     000F                     	;# 
   152     0010                     	;# 
   153     0011                     	;# 
   154     0012                     	;# 
   155     0013                     	;# 
   156     0014                     	;# 
   157     0015                     	;# 
   158     0015                     	;# 
   159     0016                     	;# 
   160     0017                     	;# 
   161     0018                     	;# 
   162     0019                     	;# 
   163     001A                     	;# 
   164     001B                     	;# 
   165     001B                     	;# 
   166     001C                     	;# 
   167     001D                     	;# 
   168     001E                     	;# 
   169     001F                     	;# 
   170     0081                     	;# 
   171     0085                     	;# 
   172     0086                     	;# 
   173     0087                     	;# 
   174     008C                     	;# 
   175     008D                     	;# 
   176     008E                     	;# 
   177     0091                     	;# 
   178     0092                     	;# 
   179     0093                     	;# 
   180     0094                     	;# 
   181     0098                     	;# 
   182     0099                     	;# 
   183     009C                     	;# 
   184     009D                     	;# 
   185     009E                     	;# 
   186     009F                     	;# 
   187     010C                     	;# 
   188     010D                     	;# 
   189     010E                     	;# 
   190     010F                     	;# 
   191     018C                     	;# 
   192     018D                     	;# 
   193                           
   194                           	psect	strings
   195     0570                     __pstrings:
   196     0570                     stringtab:
   197     0570                     __stringtab:
   198                           
   199                           ;	String table - string pointers are 1 byte each
   200     0570  1BFF               	btfsc	btemp+1,7
   201     0571  2D7A               	ljmp	stringcode
   202     0572  1383               	bcf	3,7
   203     0573  187F               	btfsc	btemp+1,0
   204     0574  1783               	bsf	3,7
   205     0575  0800               	movf	0,w
   206     0576  0A84               	incf	4,f
   207     0577  1903               	skipnz
   208     0578  0AFF               	incf	btemp+1,f
   209     0579  0008               	return
   210     057A                     stringcode:
   211     057A                     stringdir:
   212     057A  3005               	movlw	high stringdir
   213     057B  008A               	movwf	10
   214     057C  0804               	movf	4,w
   215     057D  0A84               	incf	4,f
   216     057E  0782               	addwf	2,f
   217     057F                     __stringbase:
   218     057F  3400               	retlw	0
   219     0580                     __end_of__stringtab:
   220     0580                     _teclas:
   221     0580  3437               	retlw	55
   222     0581  3438               	retlw	56
   223     0582  3439               	retlw	57
   224     0583  342F               	retlw	47
   225     0584  3434               	retlw	52
   226     0585  3435               	retlw	53
   227     0586  3436               	retlw	54
   228     0587  3458               	retlw	88
   229     0588  3431               	retlw	49
   230     0589  3432               	retlw	50
   231     058A  3433               	retlw	51
   232     058B  342D               	retlw	45
   233     058C  3443               	retlw	67
   234     058D  3430               	retlw	48
   235     058E  343D               	retlw	61
   236     058F  342B               	retlw	43
   237     0590                     __end_of_teclas:
   238     0014                     _SSPCONbits	set	20
   239     0013                     _SSPBUF	set	19
   240     0014                     _SSPCON	set	20
   241     0005                     _PORTAbits	set	5
   242     0006                     _PORTB	set	6
   243     0063                     _SSPIF	set	99
   244     005F                     _GIE	set	95
   245     005E                     _PEIE	set	94
   246     002A                     _RA2	set	42
   247     0029                     _RA1	set	41
   248     0028                     _RA0	set	40
   249     0094                     _SSPSTATbits	set	148
   250     0091                     _SSPCON2	set	145
   251     0094                     _SSPSTAT	set	148
   252     0093                     _SSPADD	set	147
   253     0085                     _TRISAbits	set	133
   254     0086                     _TRISB	set	134
   255     0085                     _TRISA	set	133
   256     009F                     _ADCON1	set	159
   257     0463                     _SSPIE	set	1123
   258     048C                     _ACKEN	set	1164
   259     048D                     _ACKDT	set	1165
   260     048B                     _RCEN	set	1163
   261     048A                     _PEN	set	1162
   262     0488                     _SEN	set	1160
   263     043C                     _TRISC4	set	1084
   264     043B                     _TRISC3	set	1083
   265     0590                     STR_2:
   266     0590  3445               	retlw	69	;'E'
   267     0591  3453               	retlw	83	;'S'
   268     0592  3450               	retlw	80	;'P'
   269     0593  3445               	retlw	69	;'E'
   270     0594  3452               	retlw	82	;'R'
   271     0595  3441               	retlw	65	;'A'
   272     0596  344E               	retlw	78	;'N'
   273     0597  3444               	retlw	68	;'D'
   274     0598  344F               	retlw	79	;'O'
   275     0599  3420               	retlw	32	;' '
   276     059A  344D               	retlw	77	;'M'
   277     059B  3453               	retlw	83	;'S'
   278     059C  3420               	retlw	32	;' '
   279     059D  3445               	retlw	69	;'E'
   280     059E  3453               	retlw	83	;'S'
   281     059F  3443               	retlw	67	;'C'
   282     05A0  3400               	retlw	0
   283     05A1                     STR_3:
   284     05A1  3445               	retlw	69	;'E'
   285     05A2  3473               	retlw	115	;'s'
   286     05A3  3463               	retlw	99	;'c'
   287     05A4  3472               	retlw	114	;'r'
   288     05A5  3469               	retlw	105	;'i'
   289     05A6  3462               	retlw	98	;'b'
   290     05A7  3461               	retlw	97	;'a'
   291     05A8  3420               	retlw	32	;' '
   292     05A9  3452               	retlw	82	;'R'
   293     05AA  3465               	retlw	101	;'e'
   294     05AB  3473               	retlw	115	;'s'
   295     05AC  3470               	retlw	112	;'p'
   296     05AD  3400               	retlw	0
   297     05AE                     STR_1:
   298     05AE  344D               	retlw	77	;'M'
   299     05AF  3453               	retlw	83	;'S'
   300     05B0  3447               	retlw	71	;'G'
   301     05B1  3420               	retlw	32	;' '
   302     05B2  3445               	retlw	69	;'E'
   303     05B3  344E               	retlw	78	;'N'
   304     05B4  3456               	retlw	86	;'V'
   305     05B5  3400               	retlw	0
   306                           
   307                           	psect	cinit
   308     0013                     start_initialization:	
   309                           ; #config settings
   310                           
   311     0013                     __initialization:
   312                           
   313                           ; Clear objects allocated to BANK0
   314     0013  1383               	bcf	3,7	;select IRP bank0
   315     0014  304C               	movlw	low __pbssBANK0
   316     0015  0084               	movwf	4
   317     0016  305E               	movlw	low (__pbssBANK0+18)
   318     0017  118A  27A9  118A   	fcall	clear_ram0
   319                           
   320                           ; Clear objects allocated to BANK1
   321     001A  30A0               	movlw	low __pbssBANK1
   322     001B  0084               	movwf	4
   323     001C  30BA               	movlw	low (__pbssBANK1+26)
   324     001D  118A  27A9  118A   	fcall	clear_ram0
   325     0020                     end_of_initialization:	
   326                           ;End of C runtime variable initialization code
   327                           
   328     0020                     __end_of__initialization:
   329     0020  0183               	clrf	3
   330     0021  118A  2823         	ljmp	_main	;jump to C main() function
   331                           
   332                           	psect	bssBANK0
   333     004C                     __pbssBANK0:
   334     004C                     ISR@index:
   335     004C                     	ds	2
   336     004E                     ISR@receiveBuffer:
   337     004E                     	ds	16
   338                           
   339                           	psect	bssBANK1
   340     00A0                     __pbssBANK1:
   341     00A0                     _asciiDigits:
   342     00A0                     	ds	1
   343     00A1                     _asciiMode:
   344     00A1                     	ds	1
   345     00A2                     _charCount:
   346     00A2                     	ds	1
   347     00A3                     _cursorPosition:
   348     00A3                     	ds	1
   349     00A4                     _i2c_role:
   350     00A4                     	ds	1
   351     00A5                     _displayString:
   352     00A5                     	ds	17
   353     00B6                     _asciiValue:
   354     00B6                     	ds	4
   355                           
   356                           	psect	clrtext
   357     07A9                     clear_ram0:	
   358                           ;	Called with FSR containing the base address, and
   359                           ;	W with the last address+1
   360                           
   361     07A9  0064               	clrwdt	;clear the watchdog before getting into this loop
   362     07AA                     clrloop0:
   363     07AA  0180               	clrf	0	;clear RAM location pointed to by FSR
   364     07AB  0A84               	incf	4,f	;increment pointer
   365     07AC  0604               	xorwf	4,w	;XOR with final address
   366     07AD  1903               	btfsc	3,2	;have we reached the end yet?
   367     07AE  3400               	retlw	0	;all done for this memory range, return
   368     07AF  0604               	xorwf	4,w	;XOR again to restore value
   369     07B0  2FAA               	goto	clrloop0	;do the next byte
   370                           
   371                           	psect	cstackBANK1
   372     00BA                     __pcstackBANK1:
   373     00BA                     ?_I2C_Master_Init:
   374     00BA                     I2C_Master_Init@c:	
   375                           ; 1 bytes @ 0x0
   376                           
   377                           
   378                           ; 4 bytes @ 0x0
   379     00BA                     	ds	4
   380     00BE                     ??_I2C_Master_Init:
   381                           
   382                           ; 1 bytes @ 0x4
   383     00BE                     	ds	4
   384     00C2                     ??_main:
   385                           
   386                           ; 1 bytes @ 0x8
   387     00C2                     	ds	3
   388     00C5                     main@i:
   389                           
   390                           ; 2 bytes @ 0xB
   391     00C5                     	ds	2
   392     00C7                     main@asciiCode:
   393                           
   394                           ; 2 bytes @ 0xD
   395     00C7                     	ds	2
   396     00C9                     main@i_289:
   397                           
   398                           ; 2 bytes @ 0xF
   399     00C9                     	ds	2
   400     00CB                     main@i_290:
   401                           
   402                           ; 2 bytes @ 0x11
   403     00CB                     	ds	2
   404     00CD                     main@i_291:
   405                           
   406                           ; 2 bytes @ 0x13
   407     00CD                     	ds	2
   408     00CF                     main@key:
   409                           
   410                           ; 1 bytes @ 0x15
   411     00CF                     	ds	1
   412                           
   413                           	psect	cstackCOMMON
   414     0000                     __pcstackCOMMON:
   415     0000                     ??_Keyboard_init:
   416     0000                     ??_Prepare_Keypad_Pins:	
   417                           ; 1 bytes @ 0x0
   418                           
   419     0000                     ??_I2C_Master_Start:	
   420                           ; 1 bytes @ 0x0
   421                           
   422     0000                     ??_I2C_Master_Write:	
   423                           ; 1 bytes @ 0x0
   424                           
   425     0000                     ??_I2C_Master_Stop:	
   426                           ; 1 bytes @ 0x0
   427                           
   428     0000                     ??_Prepare_LCD_Pins:	
   429                           ; 1 bytes @ 0x0
   430                           
   431     0000                     ??_LCD_setCursor:	
   432                           ; 1 bytes @ 0x0
   433                           
   434     0000                     ??_LCD_print:	
   435                           ; 1 bytes @ 0x0
   436                           
   437     0000                     ??_memset:	
   438                           ; 1 bytes @ 0x0
   439                           
   440     0000                     ??_I2C_Slave_Init:	
   441                           ; 1 bytes @ 0x0
   442                           
   443     0000                     ??_I2C_Master_Wait:	
   444                           ; 1 bytes @ 0x0
   445                           
   446     0000                     ??___wmul:	
   447                           ; 1 bytes @ 0x0
   448                           
   449     0000                     ??i1_LCD_setCursor:	
   450                           ; 1 bytes @ 0x0
   451                           
   452     0000                     ??i1_LCD_print:	
   453                           ; 1 bytes @ 0x0
   454                           
   455     0000                     ??i1_Keyboard_init:	
   456                           ; 1 bytes @ 0x0
   457                           
   458     0000                     ??i1_Prepare_LCD_Pins:	
   459                           ; 1 bytes @ 0x0
   460                           
   461                           
   462                           	psect	cstackBANK0
   463     0020                     __pcstackBANK0:	
   464                           ; 1 bytes @ 0x0
   465                           
   466     0020                     ?_LCD_init:
   467     0020                     ?_Keyboard_init:	
   468                           ; 1 bytes @ 0x0
   469                           
   470     0020                     ?_Prepare_Keypad_Pins:	
   471                           ; 1 bytes @ 0x0
   472                           
   473     0020                     ?_Read_Keypad:	
   474                           ; 1 bytes @ 0x0
   475                           
   476     0020                     ?_I2C_Master_Start:	
   477                           ; 1 bytes @ 0x0
   478                           
   479     0020                     ?_I2C_Master_Stop:	
   480                           ; 1 bytes @ 0x0
   481                           
   482     0020                     ?_Prepare_LCD_Pins:	
   483                           ; 1 bytes @ 0x0
   484                           
   485     0020                     ?_LCD_clear:	
   486                           ; 1 bytes @ 0x0
   487                           
   488     0020                     ?_I2C_Slave_Init:	
   489                           ; 1 bytes @ 0x0
   490                           
   491     0020                     ?_main:	
   492                           ; 1 bytes @ 0x0
   493                           
   494     0020                     ?_LCD_command:	
   495                           ; 1 bytes @ 0x0
   496                           
   497     0020                     ?_LCD_data:	
   498                           ; 1 bytes @ 0x0
   499                           
   500     0020                     ?_I2C_Master_Wait:	
   501                           ; 1 bytes @ 0x0
   502                           
   503     0020                     ?_ISR:	
   504                           ; 1 bytes @ 0x0
   505                           
   506     0020                     ?i1_LCD_command:	
   507                           ; 1 bytes @ 0x0
   508                           
   509     0020                     ??i1_LCD_command:	
   510                           ; 1 bytes @ 0x0
   511                           
   512     0020                     ?i1_LCD_data:	
   513                           ; 1 bytes @ 0x0
   514                           
   515     0020                     ??i1_LCD_data:	
   516                           ; 1 bytes @ 0x0
   517                           
   518     0020                     ?i1_LCD_clear:	
   519                           ; 1 bytes @ 0x0
   520                           
   521     0020                     ?i1_Keyboard_init:	
   522                           ; 1 bytes @ 0x0
   523                           
   524     0020                     ?i1_Prepare_LCD_Pins:	
   525                           ; 1 bytes @ 0x0
   526                           
   527     0020                     ?i1___lldiv:	
   528                           ; 1 bytes @ 0x0
   529                           
   530     0020                     i1___lldiv@divisor:	
   531                           ; 4 bytes @ 0x0
   532                           
   533                           
   534                           ; 4 bytes @ 0x0
   535     0020                     	ds	2
   536     0022                     i1LCD_command@command:
   537     0022                     i1LCD_data@data:	
   538                           ; 1 bytes @ 0x2
   539                           
   540                           
   541                           ; 1 bytes @ 0x2
   542     0022                     	ds	1
   543     0023                     ??i1_LCD_clear:
   544     0023                     ?i1_LCD_setCursor:	
   545                           ; 1 bytes @ 0x3
   546                           
   547     0023                     ?i1_LCD_print:	
   548                           ; 1 bytes @ 0x3
   549                           
   550     0023                     i1LCD_setCursor@column:	
   551                           ; 1 bytes @ 0x3
   552                           
   553     0023                     i1LCD_print@string:	
   554                           ; 1 bytes @ 0x3
   555                           
   556                           
   557                           ; 2 bytes @ 0x3
   558     0023                     	ds	1
   559     0024                     i1LCD_setCursor@row:
   560     0024                     i1___lldiv@dividend:	
   561                           ; 1 bytes @ 0x4
   562                           
   563                           
   564                           ; 4 bytes @ 0x4
   565     0024                     	ds	1
   566     0025                     i1_LCD_setCursor$303:
   567                           
   568                           ; 2 bytes @ 0x5
   569     0025                     	ds	2
   570     0027                     i1LCD_setCursor@position:
   571                           
   572                           ; 1 bytes @ 0x7
   573     0027                     	ds	1
   574     0028                     ??i1___lldiv:
   575                           
   576                           ; 1 bytes @ 0x8
   577     0028                     	ds	1
   578     0029                     i1___lldiv@quotient:
   579                           
   580                           ; 4 bytes @ 0x9
   581     0029                     	ds	4
   582     002D                     i1___lldiv@counter:
   583                           
   584                           ; 1 bytes @ 0xD
   585     002D                     	ds	1
   586     002E                     ?i1_I2C_Master_Init:
   587     002E                     i1I2C_Master_Init@c:	
   588                           ; 1 bytes @ 0xE
   589                           
   590                           
   591                           ; 4 bytes @ 0xE
   592     002E                     	ds	4
   593     0032                     ??i1_I2C_Master_Init:
   594                           
   595                           ; 1 bytes @ 0x12
   596     0032                     	ds	4
   597     0036                     ??_ISR:
   598                           
   599                           ; 1 bytes @ 0x16
   600     0036                     	ds	7
   601     003D                     ISR@temp:
   602                           
   603                           ; 1 bytes @ 0x1D
   604     003D                     	ds	1
   605     003E                     ??_Read_Keypad:
   606     003E                     ?_I2C_Master_Write:	
   607                           ; 1 bytes @ 0x1E
   608                           
   609     003E                     ?_memset:	
   610                           ; 1 bytes @ 0x1E
   611                           
   612     003E                     ??_LCD_command:	
   613                           ; 1 bytes @ 0x1E
   614                           
   615     003E                     ??_LCD_data:	
   616                           ; 1 bytes @ 0x1E
   617                           
   618     003E                     ?___wmul:	
   619                           ; 1 bytes @ 0x1E
   620                           
   621     003E                     ?___lldiv:	
   622                           ; 2 bytes @ 0x1E
   623                           
   624     003E                     I2C_Slave_Init@address:	
   625                           ; 4 bytes @ 0x1E
   626                           
   627     003E                     I2C_Master_Write@d:	
   628                           ; 1 bytes @ 0x1E
   629                           
   630     003E                     ___wmul@multiplier:	
   631                           ; 2 bytes @ 0x1E
   632                           
   633     003E                     memset@c:	
   634                           ; 2 bytes @ 0x1E
   635                           
   636     003E                     ___lldiv@divisor:	
   637                           ; 2 bytes @ 0x1E
   638                           
   639                           
   640                           ; 4 bytes @ 0x1E
   641     003E                     	ds	2
   642     0040                     LCD_command@command:
   643     0040                     LCD_data@data:	
   644                           ; 1 bytes @ 0x20
   645                           
   646     0040                     Read_Keypad@row:	
   647                           ; 1 bytes @ 0x20
   648                           
   649     0040                     ___wmul@multiplicand:	
   650                           ; 2 bytes @ 0x20
   651                           
   652     0040                     memset@n:	
   653                           ; 2 bytes @ 0x20
   654                           
   655                           
   656                           ; 2 bytes @ 0x20
   657     0040                     	ds	1
   658     0041                     ??_LCD_init:
   659     0041                     ??_LCD_clear:	
   660                           ; 1 bytes @ 0x21
   661                           
   662     0041                     ?_LCD_setCursor:	
   663                           ; 1 bytes @ 0x21
   664                           
   665     0041                     ?_LCD_print:	
   666                           ; 1 bytes @ 0x21
   667                           
   668     0041                     LCD_setCursor@column:	
   669                           ; 1 bytes @ 0x21
   670                           
   671     0041                     LCD_print@string:	
   672                           ; 1 bytes @ 0x21
   673                           
   674                           
   675                           ; 2 bytes @ 0x21
   676     0041                     	ds	1
   677     0042                     LCD_setCursor@row:
   678     0042                     memset@dest:	
   679                           ; 1 bytes @ 0x22
   680                           
   681     0042                     Read_Keypad@col:	
   682                           ; 1 bytes @ 0x22
   683                           
   684     0042                     ___wmul@product:	
   685                           ; 2 bytes @ 0x22
   686                           
   687     0042                     ___lldiv@dividend:	
   688                           ; 2 bytes @ 0x22
   689                           
   690                           
   691                           ; 4 bytes @ 0x22
   692     0042                     	ds	1
   693     0043                     memset@p:
   694     0043                     _LCD_setCursor$303:	
   695                           ; 1 bytes @ 0x23
   696                           
   697                           
   698                           ; 2 bytes @ 0x23
   699     0043                     	ds	1
   700     0044                     ?_atoi:
   701                           
   702                           ; 2 bytes @ 0x24
   703     0044                     	ds	1
   704     0045                     LCD_setCursor@position:
   705                           
   706                           ; 1 bytes @ 0x25
   707     0045                     	ds	1
   708     0046                     ??_atoi:
   709     0046                     ??___lldiv:	
   710                           ; 1 bytes @ 0x26
   711                           
   712                           
   713                           ; 1 bytes @ 0x26
   714     0046                     	ds	1
   715     0047                     ___lldiv@quotient:
   716                           
   717                           ; 4 bytes @ 0x27
   718     0047                     	ds	1
   719     0048                     atoi@neg:
   720                           
   721                           ; 1 bytes @ 0x28
   722     0048                     	ds	1
   723     0049                     atoi@n:
   724                           
   725                           ; 2 bytes @ 0x29
   726     0049                     	ds	2
   727     004B                     ___lldiv@counter:
   728     004B                     atoi@s:	
   729                           ; 1 bytes @ 0x2B
   730                           
   731                           
   732                           ; 1 bytes @ 0x2B
   733     004B                     	ds	1
   734                           
   735                           	psect	maintext
   736     0023                     __pmaintext:	
   737 ;;
   738 ;;Main: autosize = 0, tempsize = 3, incstack = 0, save=0
   739 ;;
   740 ;; *************** function _main *****************
   741 ;; Defined at:
   742 ;;		line 95 in file "env_maestro.c"
   743 ;; Parameters:    Size  Location     Type
   744 ;;		None
   745 ;; Auto vars:     Size  Location     Type
   746 ;;  i               2   19[BANK1 ] int 
   747 ;;  i               2   17[BANK1 ] int 
   748 ;;  i               2   15[BANK1 ] int 
   749 ;;  i               2   11[BANK1 ] int 
   750 ;;  asciiCode       2   13[BANK1 ] int 
   751 ;;  key             1   21[BANK1 ] unsigned char 
   752 ;; Return value:  Size  Location     Type
   753 ;;                  1    wreg      void 
   754 ;; Registers used:
   755 ;;		wreg, fsr0l, fsr0h, status,2, status,0, btemp+1, pclath, cstack
   756 ;; Tracked objects:
   757 ;;		On entry : B00/0
   758 ;;		On exit  : 0/0
   759 ;;		Unchanged: 0/0
   760 ;; Data sizes:     COMMON   BANK0   BANK1
   761 ;;      Params:         0       0       0
   762 ;;      Locals:         0       0      11
   763 ;;      Temps:          0       0       3
   764 ;;      Totals:         0       0      14
   765 ;;Total ram usage:       14 bytes
   766 ;; Hardware stack levels required when called: 5
   767 ;; This function calls:
   768 ;;		_I2C_Master_Init
   769 ;;		_I2C_Master_Start
   770 ;;		_I2C_Master_Stop
   771 ;;		_I2C_Master_Write
   772 ;;		_I2C_Slave_Init
   773 ;;		_Keyboard_init
   774 ;;		_LCD_clear
   775 ;;		_LCD_init
   776 ;;		_LCD_print
   777 ;;		_LCD_setCursor
   778 ;;		_Prepare_Keypad_Pins
   779 ;;		_Prepare_LCD_Pins
   780 ;;		_Read_Keypad
   781 ;;		_atoi
   782 ;;		_memset
   783 ;; This function is called by:
   784 ;;		Startup code after reset
   785 ;; This function uses a non-reentrant model
   786 ;;
   787                           
   788     0023                     _main:	
   789                           ;psect for function _main
   790                           
   791     0023                     l1930:	
   792                           ;incstack = 0
   793                           ; Regs used in _main: [wreg-fsr0h+status,2+status,0+btemp+1+pclath+cstack]
   794                           
   795                           
   796                           ;env_maestro.c: 96:     LCD_init();
   797     0023  118A  2523  118A   	fcall	_LCD_init
   798                           
   799                           ;env_maestro.c: 97:     Keyboard_init();
   800     0026  118A  278A  118A   	fcall	_Keyboard_init
   801     0029                     l1932:
   802                           
   803                           ;env_maestro.c: 98:     I2C_Master_Init(100000);
   804     0029  3000               	movlw	0
   805     002A  1683               	bsf	3,5	;RP0=1, select bank1
   806     002B  1303               	bcf	3,6	;RP1=0, select bank1
   807     002C  00BD               	movwf	(I2C_Master_Init@c+3)^(0+128)
   808     002D  3001               	movlw	1
   809     002E  00BC               	movwf	(I2C_Master_Init@c+2)^(0+128)
   810     002F  3086               	movlw	134
   811     0030  00BB               	movwf	(I2C_Master_Init@c+1)^(0+128)
   812     0031  30A0               	movlw	160
   813     0032  00BA               	movwf	I2C_Master_Init@c^(0+128)
   814     0033  118A  25B6  118A   	fcall	_I2C_Master_Init
   815     0036                     l1934:
   816                           
   817                           ;env_maestro.c: 102:         Prepare_Keypad_Pins();
   818     0036  118A  27A0  118A   	fcall	_Prepare_Keypad_Pins
   819     0039                     l1936:
   820                           
   821                           ;env_maestro.c: 103:         char key = Read_Keypad();
   822     0039  118A  2340  118A   	fcall	_Read_Keypad
   823     003C  1683               	bsf	3,5	;RP0=1, select bank1
   824     003D  1303               	bcf	3,6	;RP1=0, select bank1
   825     003E  00CF               	movwf	main@key^(0+128)
   826     003F                     l1938:
   827                           
   828                           ;env_maestro.c: 105:         if (key == '-') {
   829     003F  302D               	movlw	45
   830     0040  064F               	xorwf	main@key^(0+128),w
   831     0041  1D03               	btfss	3,2
   832     0042  2844               	goto	u1521
   833     0043  2845               	goto	u1520
   834     0044                     u1521:
   835     0044  28DD               	goto	l1980
   836     0045                     u1520:
   837     0045                     l1940:
   838                           
   839                           ;env_maestro.c: 107:             if (charCount > 0) {
   840     0045  0822               	movf	_charCount^(0+128),w
   841     0046  1903               	btfsc	3,2
   842     0047  2849               	goto	u1531
   843     0048  284A               	goto	u1530
   844     0049                     u1531:
   845     0049  2A78               	goto	l2102
   846     004A                     u1530:
   847     004A                     l1942:
   848                           
   849                           ;env_maestro.c: 108:                 I2C_Master_Start();
   850     004A  118A  27C0  118A   	fcall	_I2C_Master_Start
   851                           
   852                           ;env_maestro.c: 109:                 I2C_Master_Write(0x10);
   853     004D  3010               	movlw	16
   854     004E  1283               	bcf	3,5	;RP0=0, select bank0
   855     004F  1303               	bcf	3,6	;RP1=0, select bank0
   856     0050  00BE               	movwf	I2C_Master_Write@d
   857     0051  3000               	movlw	0
   858     0052  00BF               	movwf	I2C_Master_Write@d+1
   859     0053  118A  27B1  118A   	fcall	_I2C_Master_Write
   860     0056                     l1944:
   861                           
   862                           ;env_maestro.c: 110:                 for (int i = 0; i < charCount; i++) {
   863     0056  1683               	bsf	3,5	;RP0=1, select bank1
   864     0057  1303               	bcf	3,6	;RP1=0, select bank1
   865     0058  01C5               	clrf	main@i^(0+128)
   866     0059  01C6               	clrf	(main@i+1)^(0+128)
   867     005A  2879               	goto	l1950
   868     005B                     l1946:
   869                           
   870                           ;env_maestro.c: 111:                     I2C_Master_Write(displayString[i]);
   871     005B  1683               	bsf	3,5	;RP0=1, select bank1
   872     005C  1303               	bcf	3,6	;RP1=0, select bank1
   873     005D  0845               	movf	main@i^(0+128),w
   874     005E  3EA5               	addlw	(low (_displayString| 0))& (0+255)
   875     005F  0084               	movwf	4
   876     0060  1383               	bcf	3,7	;select IRP bank1
   877     0061  0800               	movf	0,w
   878     0062  00C2               	movwf	??_main^(0+128)
   879     0063  01C3               	clrf	(??_main^(0+128)+1)
   880     0064  0842               	movf	??_main^(0+128),w
   881     0065  1283               	bcf	3,5	;RP0=0, select bank0
   882     0066  1303               	bcf	3,6	;RP1=0, select bank0
   883     0067  00BE               	movwf	I2C_Master_Write@d
   884     0068  1683               	bsf	3,5	;RP0=1, select bank1
   885     0069  1303               	bcf	3,6	;RP1=0, select bank1
   886     006A  0843               	movf	(??_main+1)^(0+128),w
   887     006B  1283               	bcf	3,5	;RP0=0, select bank0
   888     006C  1303               	bcf	3,6	;RP1=0, select bank0
   889     006D  00BF               	movwf	I2C_Master_Write@d+1
   890     006E  118A  27B1  118A   	fcall	_I2C_Master_Write
   891     0071                     l1948:
   892                           
   893                           ;env_maestro.c: 112:                 }
   894     0071  3001               	movlw	1
   895     0072  1683               	bsf	3,5	;RP0=1, select bank1
   896     0073  1303               	bcf	3,6	;RP1=0, select bank1
   897     0074  07C5               	addwf	main@i^(0+128),f
   898     0075  1803               	skipnc
   899     0076  0AC6               	incf	(main@i+1)^(0+128),f
   900     0077  3000               	movlw	0
   901     0078  07C6               	addwf	(main@i+1)^(0+128),f
   902     0079                     l1950:
   903     0079  0846               	movf	(main@i+1)^(0+128),w
   904     007A  3A80               	xorlw	128
   905     007B  00C2               	movwf	??_main^(0+128)
   906     007C  3080               	movlw	128
   907     007D  0242               	subwf	??_main^(0+128),w
   908     007E  1D03               	skipz
   909     007F  2882               	goto	u1545
   910     0080  0822               	movf	_charCount^(0+128),w
   911     0081  0245               	subwf	main@i^(0+128),w
   912     0082                     u1545:
   913     0082  1C03               	skipc
   914     0083  2885               	goto	u1541
   915     0084  2886               	goto	u1540
   916     0085                     u1541:
   917     0085  285B               	goto	l1946
   918     0086                     u1540:
   919     0086                     l1952:
   920                           
   921                           ;env_maestro.c: 113:                 I2C_Master_Write('\0');
   922     0086  3000               	movlw	0
   923     0087  1283               	bcf	3,5	;RP0=0, select bank0
   924     0088  1303               	bcf	3,6	;RP1=0, select bank0
   925     0089  00BE               	movwf	I2C_Master_Write@d
   926     008A  00BF               	movwf	I2C_Master_Write@d+1
   927     008B  118A  27B1  118A   	fcall	_I2C_Master_Write
   928                           
   929                           ;env_maestro.c: 114:                 I2C_Master_Stop();
   930     008E  118A  27B9  118A   	fcall	_I2C_Master_Stop
   931     0091                     l1954:
   932                           
   933                           ;env_maestro.c: 115: Prepare_LCD_Pins();
   934     0091  118A  27C7  118A   	fcall	_Prepare_LCD_Pins
   935     0094                     l1956:
   936                           
   937                           ;env_maestro.c: 116:                 LCD_clear();
   938     0094  118A  275D  118A   	fcall	_LCD_clear
   939     0097                     l1958:
   940                           
   941                           ;env_maestro.c: 117:                 LCD_setCursor(1, 0);
   942     0097  1283               	bcf	3,5	;RP0=0, select bank0
   943     0098  1303               	bcf	3,6	;RP1=0, select bank0
   944     0099  01C1               	clrf	LCD_setCursor@column
   945     009A  3001               	movlw	1
   946     009B  118A  26B5  118A   	fcall	_LCD_setCursor
   947     009E                     l1960:
   948                           
   949                           ;env_maestro.c: 118:                 Prepare_LCD_Pins();
   950     009E  118A  27C7  118A   	fcall	_Prepare_LCD_Pins
   951     00A1                     l1962:
   952                           
   953                           ;env_maestro.c: 119:                 LCD_print("MSG ENV");
   954     00A1  302F               	movlw	(low ((STR_1-__stringbase)| (0+32768)))& (0+255)
   955     00A2  1283               	bcf	3,5	;RP0=0, select bank0
   956     00A3  1303               	bcf	3,6	;RP1=0, select bank0
   957     00A4  00C1               	movwf	LCD_print@string
   958     00A5  3080               	movlw	128
   959     00A6  00C2               	movwf	LCD_print@string+1
   960     00A7  118A  2653  118A   	fcall	_LCD_print
   961     00AA                     l1964:
   962                           
   963                           ;env_maestro.c: 120:                 _delay((unsigned long)((1000)*(4000000/4000.0)));
   964     00AA  3006               	movlw	6
   965     00AB  1683               	bsf	3,5	;RP0=1, select bank1
   966     00AC  1303               	bcf	3,6	;RP1=0, select bank1
   967     00AD  00C4               	movwf	(??_main^(0+128)+2)
   968     00AE  3013               	movlw	19
   969     00AF  00C3               	movwf	(??_main^(0+128)+1)
   970     00B0  30AD               	movlw	173
   971     00B1  00C2               	movwf	??_main^(0+128)
   972     00B2                     u1777:
   973     00B2  0BC2               	decfsz	??_main^(0+128),f
   974     00B3  28B2               	goto	u1777
   975     00B4  0BC3               	decfsz	(??_main^(0+128)+1),f
   976     00B5  28B2               	goto	u1777
   977     00B6  0BC4               	decfsz	(??_main^(0+128)+2),f
   978     00B7  28B2               	goto	u1777
   979     00B8  0000               	nop
   980     00B9                     l1966:
   981                           
   982                           ;env_maestro.c: 121:                 LCD_clear();
   983     00B9  118A  275D  118A   	fcall	_LCD_clear
   984     00BC                     l1968:
   985                           
   986                           ;env_maestro.c: 124:                 memset(displayString, 0, sizeof(displayString));
   987     00BC  3000               	movlw	0
   988     00BD  1283               	bcf	3,5	;RP0=0, select bank0
   989     00BE  1303               	bcf	3,6	;RP1=0, select bank0
   990     00BF  00BE               	movwf	memset@c
   991     00C0  00BF               	movwf	memset@c+1
   992     00C1  3011               	movlw	17
   993     00C2  00C0               	movwf	memset@n
   994     00C3  3000               	movlw	0
   995     00C4  00C1               	movwf	memset@n+1
   996     00C5  30A5               	movlw	(low (_displayString| 0))& (0+255)
   997     00C6  118A  2697  118A   	fcall	_memset
   998     00C9                     l1970:
   999                           
  1000                           ;env_maestro.c: 125:                 charCount = 0;
  1001     00C9  1683               	bsf	3,5	;RP0=1, select bank1
  1002     00CA  1303               	bcf	3,6	;RP1=0, select bank1
  1003     00CB  01A2               	clrf	_charCount^(0+128)
  1004     00CC                     l1972:
  1005                           
  1006                           ;env_maestro.c: 126:                 cursorPosition = 0;
  1007     00CC  01A3               	clrf	_cursorPosition^(0+128)
  1008     00CD                     l1974:
  1009                           
  1010                           ;env_maestro.c: 129:                 i2c_role = 1;
  1011     00CD  3001               	movlw	1
  1012     00CE  00A4               	movwf	_i2c_role^(0+128)	;volatile
  1013     00CF                     l1976:
  1014                           
  1015                           ;env_maestro.c: 130:                 I2C_Slave_Init(0x20);
  1016     00CF  3020               	movlw	32
  1017     00D0  118A  2749  118A   	fcall	_I2C_Slave_Init
  1018     00D3                     l1978:
  1019                           
  1020                           ;env_maestro.c: 131:                 LCD_print("ESPERANDO MS ESC");
  1021     00D3  3011               	movlw	(low ((STR_2-__stringbase)| (0+32768)))& (0+255)
  1022     00D4  1283               	bcf	3,5	;RP0=0, select bank0
  1023     00D5  1303               	bcf	3,6	;RP1=0, select bank0
  1024     00D6  00C1               	movwf	LCD_print@string
  1025     00D7  3080               	movlw	128
  1026     00D8  00C2               	movwf	LCD_print@string+1
  1027     00D9  118A  2653  118A   	fcall	_LCD_print
  1028     00DC  2A78               	goto	l2102
  1029     00DD                     l1980:
  1030     00DD  084F               	movf	main@key^(0+128),w
  1031     00DE  1903               	btfsc	3,2
  1032     00DF  28E1               	goto	u1551
  1033     00E0  28E2               	goto	u1550
  1034     00E1                     u1551:
  1035     00E1  2A78               	goto	l2102
  1036     00E2                     u1550:
  1037     00E2                     l1982:
  1038     00E2  302D               	movlw	45
  1039     00E3  064F               	xorwf	main@key^(0+128),w
  1040     00E4  1903               	btfsc	3,2
  1041     00E5  28E7               	goto	u1561
  1042     00E6  28E8               	goto	u1560
  1043     00E7                     u1561:
  1044     00E7  2A78               	goto	l2102
  1045     00E8                     u1560:
  1046     00E8                     l1984:
  1047                           
  1048                           ;env_maestro.c: 137:             if (asciiMode && key == '=') {
  1049     00E8  0821               	movf	_asciiMode^(0+128),w
  1050     00E9  1903               	btfsc	3,2
  1051     00EA  28EC               	goto	u1571
  1052     00EB  28ED               	goto	u1570
  1053     00EC                     u1571:
  1054     00EC  296D               	goto	l2020
  1055     00ED                     u1570:
  1056     00ED                     l1986:
  1057     00ED  303D               	movlw	61
  1058     00EE  064F               	xorwf	main@key^(0+128),w
  1059     00EF  1D03               	btfss	3,2
  1060     00F0  28F2               	goto	u1581
  1061     00F1  28F3               	goto	u1580
  1062     00F2                     u1581:
  1063     00F2  296D               	goto	l2020
  1064     00F3                     u1580:
  1065     00F3                     l1988:
  1066                           
  1067                           ;env_maestro.c: 139:                 int asciiCode = atoi(asciiValue);
  1068     00F3  30B6               	movlw	(low (_asciiValue| 0))& (0+255)
  1069     00F4  118A  23DB  118A   	fcall	_atoi
  1070     00F7  1283               	bcf	3,5	;RP0=0, select bank0
  1071     00F8  1303               	bcf	3,6	;RP1=0, select bank0
  1072     00F9  0845               	movf	?_atoi+1,w
  1073     00FA  1683               	bsf	3,5	;RP0=1, select bank1
  1074     00FB  1303               	bcf	3,6	;RP1=0, select bank1
  1075     00FC  00C8               	movwf	(main@asciiCode+1)^(0+128)
  1076     00FD  1283               	bcf	3,5	;RP0=0, select bank0
  1077     00FE  1303               	bcf	3,6	;RP1=0, select bank0
  1078     00FF  0844               	movf	?_atoi,w
  1079     0100  1683               	bsf	3,5	;RP0=1, select bank1
  1080     0101  1303               	bcf	3,6	;RP1=0, select bank1
  1081     0102  00C7               	movwf	main@asciiCode^(0+128)
  1082     0103                     l1990:
  1083                           
  1084                           ;env_maestro.c: 140:                 if (asciiCode >= 33 && asciiCode <= 254 && charCoun
      +                          t < 16) {
  1085     0103  0848               	movf	(main@asciiCode+1)^(0+128),w
  1086     0104  3A80               	xorlw	128
  1087     0105  00FF               	movwf	btemp+1
  1088     0106  3080               	movlw	128
  1089     0107  027F               	subwf	btemp+1,w
  1090     0108  1D03               	skipz
  1091     0109  290C               	goto	u1595
  1092     010A  3021               	movlw	33
  1093     010B  0247               	subwf	main@asciiCode^(0+128),w
  1094     010C                     u1595:
  1095     010C  1C03               	skipc
  1096     010D  290F               	goto	u1591
  1097     010E  2910               	goto	u1590
  1098     010F                     u1591:
  1099     010F  2967               	goto	l2014
  1100     0110                     u1590:
  1101     0110                     l1992:
  1102     0110  1683               	bsf	3,5	;RP0=1, select bank1
  1103     0111  1303               	bcf	3,6	;RP1=0, select bank1
  1104     0112  0848               	movf	(main@asciiCode+1)^(0+128),w
  1105     0113  3A80               	xorlw	128
  1106     0114  00FF               	movwf	btemp+1
  1107     0115  3080               	movlw	128
  1108     0116  027F               	subwf	btemp+1,w
  1109     0117  1D03               	skipz
  1110     0118  291B               	goto	u1605
  1111     0119  30FF               	movlw	255
  1112     011A  0247               	subwf	main@asciiCode^(0+128),w
  1113     011B                     u1605:
  1114     011B  1803               	skipnc
  1115     011C  291E               	goto	u1601
  1116     011D  291F               	goto	u1600
  1117     011E                     u1601:
  1118     011E  2967               	goto	l2014
  1119     011F                     u1600:
  1120     011F                     l1994:
  1121     011F  3010               	movlw	16
  1122     0120  1683               	bsf	3,5	;RP0=1, select bank1
  1123     0121  1303               	bcf	3,6	;RP1=0, select bank1
  1124     0122  0222               	subwf	_charCount^(0+128),w
  1125     0123  1803               	skipnc
  1126     0124  2926               	goto	u1611
  1127     0125  2927               	goto	u1610
  1128     0126                     u1611:
  1129     0126  2967               	goto	l2014
  1130     0127                     u1610:
  1131     0127                     l1996:
  1132                           
  1133                           ;env_maestro.c: 141:                     for (int i = charCount; i > cursorPosition; i--
      +                          ) {
  1134     0127  0822               	movf	_charCount^(0+128),w
  1135     0128  00C2               	movwf	??_main^(0+128)
  1136     0129  01C3               	clrf	(??_main^(0+128)+1)
  1137     012A  0842               	movf	??_main^(0+128),w
  1138     012B  00C9               	movwf	main@i_289^(0+128)
  1139     012C  0843               	movf	(??_main+1)^(0+128),w
  1140     012D  00CA               	movwf	(main@i_289+1)^(0+128)
  1141     012E  2942               	goto	l2002
  1142     012F                     l1998:
  1143                           
  1144                           ;env_maestro.c: 142:                         displayString[i] = displayString[i - 1];
  1145     012F  1683               	bsf	3,5	;RP0=1, select bank1
  1146     0130  1303               	bcf	3,6	;RP1=0, select bank1
  1147     0131  0849               	movf	main@i_289^(0+128),w
  1148     0132  3EA4               	addlw	(low ((_displayString| 0+255)))& (0+255)
  1149     0133  0084               	movwf	4
  1150     0134  1383               	bcf	3,7	;select IRP bank1
  1151     0135  0800               	movf	0,w
  1152     0136  00FF               	movwf	btemp+1
  1153     0137  0849               	movf	main@i_289^(0+128),w
  1154     0138  3EA5               	addlw	(low (_displayString| 0))& (0+255)
  1155     0139  0084               	movwf	4
  1156     013A  087F               	movf	btemp+1,w
  1157     013B  0080               	movwf	0
  1158     013C                     l2000:
  1159                           
  1160                           ;env_maestro.c: 143:                     }
  1161     013C  30FF               	movlw	255
  1162     013D  07C9               	addwf	main@i_289^(0+128),f
  1163     013E  1803               	skipnc
  1164     013F  0ACA               	incf	(main@i_289+1)^(0+128),f
  1165     0140  30FF               	movlw	255
  1166     0141  07CA               	addwf	(main@i_289+1)^(0+128),f
  1167     0142                     l2002:
  1168     0142  084A               	movf	(main@i_289+1)^(0+128),w
  1169     0143  3A80               	xorlw	128
  1170     0144  3C80               	sublw	128
  1171     0145  1D03               	skipz
  1172     0146  2949               	goto	u1625
  1173     0147  0849               	movf	main@i_289^(0+128),w
  1174     0148  0223               	subwf	_cursorPosition^(0+128),w
  1175     0149                     u1625:
  1176     0149  1C03               	skipc
  1177     014A  294C               	goto	u1621
  1178     014B  294D               	goto	u1620
  1179     014C                     u1621:
  1180     014C  292F               	goto	l1998
  1181     014D                     u1620:
  1182     014D                     l2004:
  1183                           
  1184                           ;env_maestro.c: 144:                     displayString[cursorPosition] = (char)asciiCode
      +                          ;
  1185     014D  1683               	bsf	3,5	;RP0=1, select bank1
  1186     014E  1303               	bcf	3,6	;RP1=0, select bank1
  1187     014F  0823               	movf	_cursorPosition^(0+128),w
  1188     0150  3EA5               	addlw	(low (_displayString| 0))& (0+255)
  1189     0151  0084               	movwf	4
  1190     0152  0847               	movf	main@asciiCode^(0+128),w
  1191     0153  1383               	bcf	3,7	;select IRP bank1
  1192     0154  0080               	movwf	0
  1193     0155                     l2006:
  1194                           
  1195                           ;env_maestro.c: 145:                     charCount++;
  1196     0155  3001               	movlw	1
  1197     0156  00FF               	movwf	btemp+1
  1198     0157  087F               	movf	btemp+1,w
  1199     0158  07A2               	addwf	_charCount^(0+128),f
  1200     0159                     l2008:
  1201                           
  1202                           ;env_maestro.c: 146:                     if (cursorPosition < 16 - 1) {
  1203     0159  300F               	movlw	15
  1204     015A  0223               	subwf	_cursorPosition^(0+128),w
  1205     015B  1803               	skipnc
  1206     015C  295E               	goto	u1631
  1207     015D  295F               	goto	u1630
  1208     015E                     u1631:
  1209     015E  2963               	goto	l2012
  1210     015F                     u1630:
  1211     015F                     l2010:
  1212                           
  1213                           ;env_maestro.c: 147:                         cursorPosition++;
  1214     015F  3001               	movlw	1
  1215     0160  00FF               	movwf	btemp+1
  1216     0161  087F               	movf	btemp+1,w
  1217     0162  07A3               	addwf	_cursorPosition^(0+128),f
  1218     0163                     l2012:
  1219                           
  1220                           ;env_maestro.c: 149:                     displayString[charCount] = '\0';
  1221     0163  0822               	movf	_charCount^(0+128),w
  1222     0164  3EA5               	addlw	(low (_displayString| 0))& (0+255)
  1223     0165  0084               	movwf	4
  1224     0166  0180               	clrf	0
  1225     0167                     l2014:
  1226                           
  1227                           ;env_maestro.c: 151:                 asciiMode = 0;
  1228     0167  1683               	bsf	3,5	;RP0=1, select bank1
  1229     0168  1303               	bcf	3,6	;RP1=0, select bank1
  1230     0169  01A1               	clrf	_asciiMode^(0+128)
  1231     016A                     l2016:
  1232                           
  1233                           ;env_maestro.c: 152:                 asciiDigits = 0;
  1234     016A  01A0               	clrf	_asciiDigits^(0+128)
  1235     016B                     l2018:
  1236                           
  1237                           ;env_maestro.c: 153:                 asciiValue[0] = '\0';
  1238     016B  01B6               	clrf	_asciiValue^(0+128)
  1239                           
  1240                           ;env_maestro.c: 154:             } else if (asciiMode && key >= '0' && key <= '9' && asc
      +                          iiDigits < 3) {
  1241     016C  2A5B               	goto	l2094
  1242     016D                     l2020:
  1243     016D  0821               	movf	_asciiMode^(0+128),w
  1244     016E  1903               	btfsc	3,2
  1245     016F  2971               	goto	u1641
  1246     0170  2972               	goto	u1640
  1247     0171                     u1641:
  1248     0171  2993               	goto	l2034
  1249     0172                     u1640:
  1250     0172                     l2022:
  1251     0172  3030               	movlw	48
  1252     0173  024F               	subwf	main@key^(0+128),w
  1253     0174  1C03               	skipc
  1254     0175  2977               	goto	u1651
  1255     0176  2978               	goto	u1650
  1256     0177                     u1651:
  1257     0177  2993               	goto	l2034
  1258     0178                     u1650:
  1259     0178                     l2024:
  1260     0178  303A               	movlw	58
  1261     0179  024F               	subwf	main@key^(0+128),w
  1262     017A  1803               	skipnc
  1263     017B  297D               	goto	u1661
  1264     017C  297E               	goto	u1660
  1265     017D                     u1661:
  1266     017D  2993               	goto	l2034
  1267     017E                     u1660:
  1268     017E                     l2026:
  1269     017E  3003               	movlw	3
  1270     017F  0220               	subwf	_asciiDigits^(0+128),w
  1271     0180  1803               	skipnc
  1272     0181  2983               	goto	u1671
  1273     0182  2984               	goto	u1670
  1274     0183                     u1671:
  1275     0183  2993               	goto	l2034
  1276     0184                     u1670:
  1277     0184                     l2028:
  1278                           
  1279                           ;env_maestro.c: 155:                 asciiValue[asciiDigits++] = key;
  1280     0184  0820               	movf	_asciiDigits^(0+128),w
  1281     0185  3EB6               	addlw	(low (_asciiValue| 0))& (0+255)
  1282     0186  0084               	movwf	4
  1283     0187  084F               	movf	main@key^(0+128),w
  1284     0188  1383               	bcf	3,7	;select IRP bank1
  1285     0189  0080               	movwf	0
  1286     018A                     l2030:
  1287     018A  3001               	movlw	1
  1288     018B  00FF               	movwf	btemp+1
  1289     018C  087F               	movf	btemp+1,w
  1290     018D  07A0               	addwf	_asciiDigits^(0+128),f
  1291     018E                     l2032:
  1292                           
  1293                           ;env_maestro.c: 156:                 asciiValue[asciiDigits] = '\0';
  1294     018E  0820               	movf	_asciiDigits^(0+128),w
  1295     018F  3EB6               	addlw	(low (_asciiValue| 0))& (0+255)
  1296     0190  0084               	movwf	4
  1297     0191  0180               	clrf	0
  1298                           
  1299                           ;env_maestro.c: 157:             } else if (!asciiMode) {
  1300     0192  2A5B               	goto	l2094
  1301     0193                     l2034:
  1302     0193  0821               	movf	_asciiMode^(0+128),w
  1303     0194  1D03               	btfss	3,2
  1304     0195  2997               	goto	u1681
  1305     0196  2998               	goto	u1680
  1306     0197                     u1681:
  1307     0197  2A5B               	goto	l2094
  1308     0198                     u1680:
  1309     0198  2A4D               	goto	l2092
  1310     0199                     l126:	
  1311                           ;env_maestro.c: 159:                     case '+':
  1312                           
  1313                           
  1314                           ;env_maestro.c: 160:                         asciiMode = 1;
  1315     0199  01A1               	clrf	_asciiMode^(0+128)
  1316     019A  0AA1               	incf	_asciiMode^(0+128),f
  1317     019B                     l2038:
  1318                           
  1319                           ;env_maestro.c: 161:                 asciiDigits = 0;
  1320     019B  01A0               	clrf	_asciiDigits^(0+128)
  1321                           
  1322                           ;env_maestro.c: 162:                 asciiValue[0] = '\0';
  1323     019C  01B6               	clrf	_asciiValue^(0+128)
  1324                           
  1325                           ;env_maestro.c: 163:                         break;
  1326     019D  2A5B               	goto	l2094
  1327     019E                     l2040:
  1328                           
  1329                           ;env_maestro.c: 165:                         if (cursorPosition > 0) cursorPosition--;
  1330     019E  0823               	movf	_cursorPosition^(0+128),w
  1331     019F  1903               	btfsc	3,2
  1332     01A0  29A2               	goto	u1691
  1333     01A1  29A3               	goto	u1690
  1334     01A2                     u1691:
  1335     01A2  2A5B               	goto	l123
  1336     01A3                     u1690:
  1337     01A3                     l2042:
  1338     01A3  3001               	movlw	1
  1339     01A4  02A3               	subwf	_cursorPosition^(0+128),f
  1340     01A5  2A5B               	goto	l2094
  1341     01A6                     l2044:
  1342                           
  1343                           ;env_maestro.c: 168:                         if (cursorPosition < charCount) cursorPosit
      +                          ion++;
  1344     01A6  0822               	movf	_charCount^(0+128),w
  1345     01A7  0223               	subwf	_cursorPosition^(0+128),w
  1346     01A8  1803               	skipnc
  1347     01A9  29AB               	goto	u1701
  1348     01AA  29AC               	goto	u1700
  1349     01AB                     u1701:
  1350     01AB  2A5B               	goto	l123
  1351     01AC                     u1700:
  1352     01AC                     l2046:
  1353     01AC  3001               	movlw	1
  1354     01AD  00FF               	movwf	btemp+1
  1355     01AE  087F               	movf	btemp+1,w
  1356     01AF  07A3               	addwf	_cursorPosition^(0+128),f
  1357     01B0  2A5B               	goto	l2094
  1358     01B1                     l2048:
  1359                           
  1360                           ;env_maestro.c: 171:                         if (cursorPosition < charCount) {
  1361     01B1  0822               	movf	_charCount^(0+128),w
  1362     01B2  0223               	subwf	_cursorPosition^(0+128),w
  1363     01B3  1803               	skipnc
  1364     01B4  29B6               	goto	u1711
  1365     01B5  29B7               	goto	u1710
  1366     01B6                     u1711:
  1367     01B6  2A5B               	goto	l123
  1368     01B7                     u1710:
  1369     01B7                     l2050:
  1370                           
  1371                           ;env_maestro.c: 172:                             for (int i = cursorPosition; i < charCo
      +                          unt; i++) {
  1372     01B7  0823               	movf	_cursorPosition^(0+128),w
  1373     01B8  00C2               	movwf	??_main^(0+128)
  1374     01B9  01C3               	clrf	(??_main^(0+128)+1)
  1375     01BA  0842               	movf	??_main^(0+128),w
  1376     01BB  00CB               	movwf	main@i_290^(0+128)
  1377     01BC  0843               	movf	(??_main+1)^(0+128),w
  1378     01BD  00CC               	movwf	(main@i_290+1)^(0+128)
  1379     01BE  29D2               	goto	l2056
  1380     01BF                     l2052:
  1381                           
  1382                           ;env_maestro.c: 173:                                 displayString[i] = displayString[i 
      +                          + 1];
  1383     01BF  1683               	bsf	3,5	;RP0=1, select bank1
  1384     01C0  1303               	bcf	3,6	;RP1=0, select bank1
  1385     01C1  084B               	movf	main@i_290^(0+128),w
  1386     01C2  3EA6               	addlw	(low ((_displayString| 0+1)))& (0+255)
  1387     01C3  0084               	movwf	4
  1388     01C4  1383               	bcf	3,7	;select IRP bank1
  1389     01C5  0800               	movf	0,w
  1390     01C6  00FF               	movwf	btemp+1
  1391     01C7  084B               	movf	main@i_290^(0+128),w
  1392     01C8  3EA5               	addlw	(low (_displayString| 0))& (0+255)
  1393     01C9  0084               	movwf	4
  1394     01CA  087F               	movf	btemp+1,w
  1395     01CB  0080               	movwf	0
  1396     01CC                     l2054:
  1397                           
  1398                           ;env_maestro.c: 174:                             }
  1399     01CC  3001               	movlw	1
  1400     01CD  07CB               	addwf	main@i_290^(0+128),f
  1401     01CE  1803               	skipnc
  1402     01CF  0ACC               	incf	(main@i_290+1)^(0+128),f
  1403     01D0  3000               	movlw	0
  1404     01D1  07CC               	addwf	(main@i_290+1)^(0+128),f
  1405     01D2                     l2056:
  1406     01D2  084C               	movf	(main@i_290+1)^(0+128),w
  1407     01D3  3A80               	xorlw	128
  1408     01D4  00C2               	movwf	??_main^(0+128)
  1409     01D5  3080               	movlw	128
  1410     01D6  0242               	subwf	??_main^(0+128),w
  1411     01D7  1D03               	skipz
  1412     01D8  29DB               	goto	u1725
  1413     01D9  0822               	movf	_charCount^(0+128),w
  1414     01DA  024B               	subwf	main@i_290^(0+128),w
  1415     01DB                     u1725:
  1416     01DB  1C03               	skipc
  1417     01DC  29DE               	goto	u1721
  1418     01DD  29DF               	goto	u1720
  1419     01DE                     u1721:
  1420     01DE  29BF               	goto	l2052
  1421     01DF                     u1720:
  1422     01DF                     l2058:
  1423                           
  1424                           ;env_maestro.c: 175:                             charCount--;
  1425     01DF  3001               	movlw	1
  1426     01E0  1683               	bsf	3,5	;RP0=1, select bank1
  1427     01E1  1303               	bcf	3,6	;RP1=0, select bank1
  1428     01E2  02A2               	subwf	_charCount^(0+128),f
  1429     01E3  2A5B               	goto	l2094
  1430     01E4                     l2060:
  1431                           
  1432                           ;env_maestro.c: 179:                        if (charCount < 16 - 1) {
  1433     01E4  300F               	movlw	15
  1434     01E5  0222               	subwf	_charCount^(0+128),w
  1435     01E6  1803               	skipnc
  1436     01E7  29E9               	goto	u1731
  1437     01E8  29EA               	goto	u1730
  1438     01E9                     u1731:
  1439     01E9  2A2C               	goto	l2080
  1440     01EA                     u1730:
  1441     01EA                     l2062:
  1442                           
  1443                           ;env_maestro.c: 180:                     for (int i = charCount; i > cursorPosition; i--
      +                          ) {
  1444     01EA  0822               	movf	_charCount^(0+128),w
  1445     01EB  00C2               	movwf	??_main^(0+128)
  1446     01EC  01C3               	clrf	(??_main^(0+128)+1)
  1447     01ED  0842               	movf	??_main^(0+128),w
  1448     01EE  00CD               	movwf	main@i_291^(0+128)
  1449     01EF  0843               	movf	(??_main+1)^(0+128),w
  1450     01F0  00CE               	movwf	(main@i_291+1)^(0+128)
  1451     01F1  2A05               	goto	l2068
  1452     01F2                     l2064:
  1453                           
  1454                           ;env_maestro.c: 181:                         displayString[i] = displayString[i - 1];
  1455     01F2  1683               	bsf	3,5	;RP0=1, select bank1
  1456     01F3  1303               	bcf	3,6	;RP1=0, select bank1
  1457     01F4  084D               	movf	main@i_291^(0+128),w
  1458     01F5  3EA4               	addlw	(low ((_displayString| 0+255)))& (0+255)
  1459     01F6  0084               	movwf	4
  1460     01F7  1383               	bcf	3,7	;select IRP bank1
  1461     01F8  0800               	movf	0,w
  1462     01F9  00FF               	movwf	btemp+1
  1463     01FA  084D               	movf	main@i_291^(0+128),w
  1464     01FB  3EA5               	addlw	(low (_displayString| 0))& (0+255)
  1465     01FC  0084               	movwf	4
  1466     01FD  087F               	movf	btemp+1,w
  1467     01FE  0080               	movwf	0
  1468     01FF                     l2066:
  1469                           
  1470                           ;env_maestro.c: 182:                     }
  1471     01FF  30FF               	movlw	255
  1472     0200  07CD               	addwf	main@i_291^(0+128),f
  1473     0201  1803               	skipnc
  1474     0202  0ACE               	incf	(main@i_291+1)^(0+128),f
  1475     0203  30FF               	movlw	255
  1476     0204  07CE               	addwf	(main@i_291+1)^(0+128),f
  1477     0205                     l2068:
  1478     0205  084E               	movf	(main@i_291+1)^(0+128),w
  1479     0206  3A80               	xorlw	128
  1480     0207  3C80               	sublw	128
  1481     0208  1D03               	skipz
  1482     0209  2A0C               	goto	u1745
  1483     020A  084D               	movf	main@i_291^(0+128),w
  1484     020B  0223               	subwf	_cursorPosition^(0+128),w
  1485     020C                     u1745:
  1486     020C  1C03               	skipc
  1487     020D  2A0F               	goto	u1741
  1488     020E  2A10               	goto	u1740
  1489     020F                     u1741:
  1490     020F  29F2               	goto	l2064
  1491     0210                     u1740:
  1492     0210                     l2070:
  1493                           
  1494                           ;env_maestro.c: 183:                     displayString[cursorPosition] = key;
  1495     0210  1683               	bsf	3,5	;RP0=1, select bank1
  1496     0211  1303               	bcf	3,6	;RP1=0, select bank1
  1497     0212  0823               	movf	_cursorPosition^(0+128),w
  1498     0213  3EA5               	addlw	(low (_displayString| 0))& (0+255)
  1499     0214  0084               	movwf	4
  1500     0215  084F               	movf	main@key^(0+128),w
  1501     0216  1383               	bcf	3,7	;select IRP bank1
  1502     0217  0080               	movwf	0
  1503     0218                     l2072:
  1504                           
  1505                           ;env_maestro.c: 184:                     if (cursorPosition < 16 - 1) cursorPosition++;
  1506     0218  300F               	movlw	15
  1507     0219  0223               	subwf	_cursorPosition^(0+128),w
  1508     021A  1803               	skipnc
  1509     021B  2A1D               	goto	u1751
  1510     021C  2A1E               	goto	u1750
  1511     021D                     u1751:
  1512     021D  2A22               	goto	l2076
  1513     021E                     u1750:
  1514     021E                     l2074:
  1515     021E  3001               	movlw	1
  1516     021F  00FF               	movwf	btemp+1
  1517     0220  087F               	movf	btemp+1,w
  1518     0221  07A3               	addwf	_cursorPosition^(0+128),f
  1519     0222                     l2076:
  1520                           
  1521                           ;env_maestro.c: 185:                     if (charCount < 16) charCount++;
  1522     0222  3010               	movlw	16
  1523     0223  0222               	subwf	_charCount^(0+128),w
  1524     0224  1803               	skipnc
  1525     0225  2A27               	goto	u1761
  1526     0226  2A28               	goto	u1760
  1527     0227                     u1761:
  1528     0227  2A2C               	goto	l2080
  1529     0228                     u1760:
  1530     0228                     l2078:
  1531     0228  3001               	movlw	1
  1532     0229  00FF               	movwf	btemp+1
  1533     022A  087F               	movf	btemp+1,w
  1534     022B  07A2               	addwf	_charCount^(0+128),f
  1535     022C                     l2080:
  1536                           
  1537                           ;env_maestro.c: 189:                 Prepare_LCD_Pins();
  1538     022C  118A  27C7  118A   	fcall	_Prepare_LCD_Pins
  1539     022F                     l2082:
  1540                           
  1541                           ;env_maestro.c: 190:                 LCD_clear();
  1542     022F  118A  275D  118A   	fcall	_LCD_clear
  1543     0232                     l2084:
  1544                           
  1545                           ;env_maestro.c: 191:                 LCD_setCursor(1, 0);
  1546     0232  1283               	bcf	3,5	;RP0=0, select bank0
  1547     0233  1303               	bcf	3,6	;RP1=0, select bank0
  1548     0234  01C1               	clrf	LCD_setCursor@column
  1549     0235  3001               	movlw	1
  1550     0236  118A  26B5  118A   	fcall	_LCD_setCursor
  1551     0239                     l2086:
  1552                           
  1553                           ;env_maestro.c: 192:                 LCD_print(displayString);
  1554     0239  30A5               	movlw	(low (_displayString| 0))& (0+255)
  1555     023A  1283               	bcf	3,5	;RP0=0, select bank0
  1556     023B  1303               	bcf	3,6	;RP1=0, select bank0
  1557     023C  00C1               	movwf	LCD_print@string
  1558     023D  3000               	movlw	0
  1559     023E  00C2               	movwf	LCD_print@string+1
  1560     023F  118A  2653  118A   	fcall	_LCD_print
  1561     0242                     l2088:
  1562                           
  1563                           ;env_maestro.c: 193:                 LCD_setCursor(1, cursorPosition);
  1564     0242  1683               	bsf	3,5	;RP0=1, select bank1
  1565     0243  1303               	bcf	3,6	;RP1=0, select bank1
  1566     0244  0823               	movf	_cursorPosition^(0+128),w
  1567     0245  1283               	bcf	3,5	;RP0=0, select bank0
  1568     0246  1303               	bcf	3,6	;RP1=0, select bank0
  1569     0247  00C1               	movwf	LCD_setCursor@column
  1570     0248  3001               	movlw	1
  1571     0249  118A  26B5  118A   	fcall	_LCD_setCursor
  1572                           
  1573                           ;env_maestro.c: 194:                 break;
  1574     024C  2A5B               	goto	l2094
  1575     024D                     l2092:
  1576     024D  084F               	movf	main@key^(0+128),w
  1577                           
  1578                           ; Switch size 1, requested type "simple"
  1579                           ; Number of cases is 4, Range of values is 43 to 88
  1580                           ; switch strategies available:
  1581                           ; Name         Instructions Cycles
  1582                           ; simple_byte           13     7 (average)
  1583                           ; direct_byte          102    10 (fixed)
  1584                           ; jumptable            263     9 (fixed)
  1585                           ;	Chosen strategy is simple_byte
  1586     024E  3A2B               	xorlw	43	; case 43
  1587     024F  1903               	skipnz
  1588     0250  2999               	goto	l126
  1589     0251  3A04               	xorlw	4	; case 47
  1590     0252  1903               	skipnz
  1591     0253  299E               	goto	l2040
  1592     0254  3A6C               	xorlw	108	; case 67
  1593     0255  1903               	skipnz
  1594     0256  29B1               	goto	l2048
  1595     0257  3A1B               	xorlw	27	; case 88
  1596     0258  1903               	skipnz
  1597     0259  29A6               	goto	l2044
  1598     025A  29E4               	goto	l2060
  1599     025B                     l123:
  1600     025B                     l2094:
  1601                           
  1602                           ;env_maestro.c: 198:             LCD_clear();
  1603     025B  118A  275D  118A   	fcall	_LCD_clear
  1604     025E                     l2096:
  1605                           
  1606                           ;env_maestro.c: 199:             LCD_setCursor(1, 0);
  1607     025E  1283               	bcf	3,5	;RP0=0, select bank0
  1608     025F  1303               	bcf	3,6	;RP1=0, select bank0
  1609     0260  01C1               	clrf	LCD_setCursor@column
  1610     0261  3001               	movlw	1
  1611     0262  118A  26B5  118A   	fcall	_LCD_setCursor
  1612     0265                     l2098:
  1613                           
  1614                           ;env_maestro.c: 200:             LCD_print(displayString);
  1615     0265  30A5               	movlw	(low (_displayString| 0))& (0+255)
  1616     0266  1283               	bcf	3,5	;RP0=0, select bank0
  1617     0267  1303               	bcf	3,6	;RP1=0, select bank0
  1618     0268  00C1               	movwf	LCD_print@string
  1619     0269  3000               	movlw	0
  1620     026A  00C2               	movwf	LCD_print@string+1
  1621     026B  118A  2653  118A   	fcall	_LCD_print
  1622     026E                     l2100:
  1623                           
  1624                           ;env_maestro.c: 201:             LCD_setCursor(1, cursorPosition);
  1625     026E  1683               	bsf	3,5	;RP0=1, select bank1
  1626     026F  1303               	bcf	3,6	;RP1=0, select bank1
  1627     0270  0823               	movf	_cursorPosition^(0+128),w
  1628     0271  1283               	bcf	3,5	;RP0=0, select bank0
  1629     0272  1303               	bcf	3,6	;RP1=0, select bank0
  1630     0273  00C1               	movwf	LCD_setCursor@column
  1631     0274  3001               	movlw	1
  1632     0275  118A  26B5  118A   	fcall	_LCD_setCursor
  1633     0278                     l2102:
  1634                           
  1635                           ;env_maestro.c: 204:         _delay((unsigned long)((100)*(4000000/4000.0)));
  1636     0278  3082               	movlw	130
  1637     0279  1683               	bsf	3,5	;RP0=1, select bank1
  1638     027A  1303               	bcf	3,6	;RP1=0, select bank1
  1639     027B  00C3               	movwf	(??_main^(0+128)+1)
  1640     027C  30DD               	movlw	221
  1641     027D  00C2               	movwf	??_main^(0+128)
  1642     027E                     u1787:
  1643     027E  0BC2               	decfsz	??_main^(0+128),f
  1644     027F  2A7E               	goto	u1787
  1645     0280  0BC3               	decfsz	(??_main^(0+128)+1),f
  1646     0281  2A7E               	goto	u1787
  1647     0282  0000               	nop
  1648     0283  2836               	goto	l1934
  1649     0284  118A  2811         	ljmp	start
  1650     0286                     __end_of_main:
  1651                           
  1652                           	psect	text1
  1653     0697                     __ptext1:	
  1654 ;; *************** function _memset *****************
  1655 ;; Defined at:
  1656 ;;		line 3 in file "C:\Program Files\Microchip\xc8\v2.46\pic\sources\c99\common\memset.c"
  1657 ;; Parameters:    Size  Location     Type
  1658 ;;  dest            1    wreg     PTR void 
  1659 ;;		 -> displayString(17), 
  1660 ;;  c               2   30[BANK0 ] int 
  1661 ;;  n               2   32[BANK0 ] unsigned int 
  1662 ;; Auto vars:     Size  Location     Type
  1663 ;;  dest            1   34[BANK0 ] PTR void 
  1664 ;;		 -> displayString(17), 
  1665 ;;  p               1   35[BANK0 ] PTR unsigned char 
  1666 ;;		 -> displayString(17), 
  1667 ;; Return value:  Size  Location     Type
  1668 ;;                  1    wreg      PTR void 
  1669 ;; Registers used:
  1670 ;;		wreg, fsr0l, fsr0h, status,2, status,0, btemp+1
  1671 ;; Tracked objects:
  1672 ;;		On entry : 0/0
  1673 ;;		On exit  : 0/0
  1674 ;;		Unchanged: 0/0
  1675 ;; Data sizes:     COMMON   BANK0   BANK1
  1676 ;;      Params:         0       4       0
  1677 ;;      Locals:         0       2       0
  1678 ;;      Temps:          0       0       0
  1679 ;;      Totals:         0       6       0
  1680 ;;Total ram usage:        6 bytes
  1681 ;; Hardware stack levels used: 1
  1682 ;; Hardware stack levels required when called: 3
  1683 ;; This function calls:
  1684 ;;		Nothing
  1685 ;; This function is called by:
  1686 ;;		_main
  1687 ;; This function uses a non-reentrant model
  1688 ;;
  1689                           
  1690     0697                     _memset:	
  1691                           ;psect for function _memset
  1692                           
  1693                           
  1694                           ;incstack = 0
  1695                           ; Regs used in _memset: [wreg-fsr0h+status,2+status,0+btemp+1]
  1696                           ;memset@dest stored from wreg
  1697     0697  1283               	bcf	3,5	;RP0=0, select bank0
  1698     0698  1303               	bcf	3,6	;RP1=0, select bank0
  1699     0699  00C2               	movwf	memset@dest
  1700     069A                     l1582:
  1701     069A  0842               	movf	memset@dest,w
  1702     069B  00C3               	movwf	memset@p
  1703     069C  2EA6               	goto	l1588
  1704     069D                     l1584:
  1705     069D  0843               	movf	memset@p,w
  1706     069E  0084               	movwf	4
  1707     069F  083E               	movf	memset@c,w
  1708     06A0  1383               	bcf	3,7	;select IRP bank0
  1709     06A1  0080               	movwf	0
  1710     06A2                     l1586:
  1711     06A2  3001               	movlw	1
  1712     06A3  00FF               	movwf	btemp+1
  1713     06A4  087F               	movf	btemp+1,w
  1714     06A5  07C3               	addwf	memset@p,f
  1715     06A6                     l1588:
  1716     06A6  3001               	movlw	1
  1717     06A7  02C0               	subwf	memset@n,f
  1718     06A8  3000               	movlw	0
  1719     06A9  1C03               	skipc
  1720     06AA  03C1               	decf	memset@n+1,f
  1721     06AB  02C1               	subwf	memset@n+1,f
  1722     06AC  0A40               	incf	memset@n,w
  1723     06AD  1D03               	skipz
  1724     06AE  2EB3               	goto	u1071
  1725     06AF  0A41               	incf	memset@n+1,w
  1726     06B0  1D03               	btfss	3,2
  1727     06B1  2EB3               	goto	u1071
  1728     06B2  2EB4               	goto	u1070
  1729     06B3                     u1071:
  1730     06B3  2E9D               	goto	l1584
  1731     06B4                     u1070:
  1732     06B4                     l798:
  1733     06B4  0008               	return
  1734     06B5                     __end_of_memset:
  1735                           
  1736                           	psect	text2
  1737     03DB                     __ptext2:	
  1738 ;; *************** function _atoi *****************
  1739 ;; Defined at:
  1740 ;;		line 5 in file "C:\Program Files\Microchip\xc8\v2.46\pic\sources\c99\common\atoi.c"
  1741 ;; Parameters:    Size  Location     Type
  1742 ;;  s               1    wreg     PTR const unsigned char 
  1743 ;;		 -> asciiValue(4), 
  1744 ;; Auto vars:     Size  Location     Type
  1745 ;;  s               1   43[BANK0 ] PTR const unsigned char 
  1746 ;;		 -> asciiValue(4), 
  1747 ;;  n               2   41[BANK0 ] int 
  1748 ;;  neg             1   40[BANK0 ] _Bool 
  1749 ;; Return value:  Size  Location     Type
  1750 ;;                  2   36[BANK0 ] int 
  1751 ;; Registers used:
  1752 ;;		wreg, fsr0l, fsr0h, status,2, status,0, btemp+1, pclath, cstack
  1753 ;; Tracked objects:
  1754 ;;		On entry : 0/0
  1755 ;;		On exit  : 0/0
  1756 ;;		Unchanged: 0/0
  1757 ;; Data sizes:     COMMON   BANK0   BANK1
  1758 ;;      Params:         0       2       0
  1759 ;;      Locals:         0       4       0
  1760 ;;      Temps:          0       2       0
  1761 ;;      Totals:         0       8       0
  1762 ;;Total ram usage:        8 bytes
  1763 ;; Hardware stack levels used: 1
  1764 ;; Hardware stack levels required when called: 4
  1765 ;; This function calls:
  1766 ;;		___wmul
  1767 ;; This function is called by:
  1768 ;;		_main
  1769 ;; This function uses a non-reentrant model
  1770 ;;
  1771                           
  1772     03DB                     _atoi:	
  1773                           ;psect for function _atoi
  1774                           
  1775                           
  1776                           ;incstack = 0
  1777                           ; Regs used in _atoi: [wreg-fsr0h+status,2+status,0+btemp+1+pclath+cstack]
  1778                           ;atoi@s stored from wreg
  1779     03DB  1283               	bcf	3,5	;RP0=0, select bank0
  1780     03DC  1303               	bcf	3,6	;RP1=0, select bank0
  1781     03DD  00CB               	movwf	atoi@s
  1782     03DE                     l1604:
  1783     03DE  01C9               	clrf	atoi@n
  1784     03DF  01CA               	clrf	atoi@n+1
  1785     03E0  01C8               	clrf	atoi@neg
  1786     03E1  2BE6               	goto	l1608
  1787     03E2                     l1606:
  1788     03E2  3001               	movlw	1
  1789     03E3  00FF               	movwf	btemp+1
  1790     03E4  087F               	movf	btemp+1,w
  1791     03E5  07CB               	addwf	atoi@s,f
  1792     03E6                     l1608:
  1793     03E6  084B               	movf	atoi@s,w
  1794     03E7  0084               	movwf	4
  1795     03E8  3020               	movlw	32
  1796     03E9  1383               	bcf	3,7	;select IRP bank0
  1797     03EA  0600               	xorwf	0,w
  1798     03EB  1903               	btfsc	3,2
  1799     03EC  2BEE               	goto	u1081
  1800     03ED  2BEF               	goto	u1080
  1801     03EE                     u1081:
  1802     03EE  2BE2               	goto	l1606
  1803     03EF                     u1080:
  1804     03EF                     l1610:
  1805     03EF  084B               	movf	atoi@s,w
  1806     03F0  0084               	movwf	4
  1807     03F1  30F7               	movlw	247
  1808     03F2  0700               	addwf	0,w
  1809     03F3  00C6               	movwf	??_atoi
  1810     03F4  3005               	movlw	5
  1811     03F5  0246               	subwf	??_atoi,w
  1812     03F6  1C03               	skipc
  1813     03F7  2BF9               	goto	u1091
  1814     03F8  2BFA               	goto	u1090
  1815     03F9                     u1091:
  1816     03F9  2BE2               	goto	l1606
  1817     03FA                     u1090:
  1818     03FA                     l1612:
  1819     03FA  084B               	movf	atoi@s,w
  1820     03FB  0084               	movwf	4
  1821     03FC  302D               	movlw	45
  1822     03FD  0600               	xorwf	0,w
  1823     03FE  1D03               	btfss	3,2
  1824     03FF  2C01               	goto	u1101
  1825     0400  2C02               	goto	u1100
  1826     0401                     u1101:
  1827     0401  2C09               	goto	l1618
  1828     0402                     u1100:
  1829     0402                     l1614:
  1830     0402  01C8               	clrf	atoi@neg
  1831     0403  0AC8               	incf	atoi@neg,f
  1832     0404                     l1616:
  1833     0404  3001               	movlw	1
  1834     0405  00FF               	movwf	btemp+1
  1835     0406  087F               	movf	btemp+1,w
  1836     0407  07CB               	addwf	atoi@s,f
  1837     0408  2C32               	goto	l1626
  1838     0409                     l1618:
  1839     0409  084B               	movf	atoi@s,w
  1840     040A  0084               	movwf	4
  1841     040B  302B               	movlw	43
  1842     040C  0600               	xorwf	0,w
  1843     040D  1D03               	btfss	3,2
  1844     040E  2C10               	goto	u1111
  1845     040F  2C11               	goto	u1110
  1846     0410                     u1111:
  1847     0410  2C32               	goto	l1626
  1848     0411                     u1110:
  1849     0411  2C04               	goto	l1616
  1850     0412                     l1622:
  1851     0412  084B               	movf	atoi@s,w
  1852     0413  0084               	movwf	4
  1853     0414  084A               	movf	atoi@n+1,w
  1854     0415  00BF               	movwf	___wmul@multiplier+1
  1855     0416  0849               	movf	atoi@n,w
  1856     0417  00BE               	movwf	___wmul@multiplier
  1857     0418  300A               	movlw	10
  1858     0419  00C0               	movwf	___wmul@multiplicand
  1859     041A  3000               	movlw	0
  1860     041B  00C1               	movwf	___wmul@multiplicand+1
  1861     041C  118A  262C  118A   	fcall	___wmul
  1862     041F  1283               	bcf	3,5	;RP0=0, select bank0
  1863     0420  1303               	bcf	3,6	;RP1=0, select bank0
  1864     0421  083F               	movf	?___wmul+1,w
  1865     0422  00C7               	movwf	??_atoi+1
  1866     0423  1383               	bcf	3,7	;select IRP bank0
  1867     0424  0800               	movf	0,w
  1868     0425  023E               	subwf	?___wmul,w
  1869     0426  00C6               	movwf	??_atoi
  1870     0427  1C03               	skipc
  1871     0428  03C7               	decf	??_atoi+1,f
  1872     0429  0846               	movf	??_atoi,w
  1873     042A  3E30               	addlw	48
  1874     042B  00C9               	movwf	atoi@n
  1875     042C  0847               	movf	??_atoi+1,w
  1876     042D  1803               	skipnc
  1877     042E  3E01               	addlw	1
  1878     042F  3E00               	addlw	0
  1879     0430  00CA               	movwf	atoi@n+1
  1880     0431  2C04               	goto	l1616
  1881     0432                     l1626:
  1882     0432  084B               	movf	atoi@s,w
  1883     0433  0084               	movwf	4
  1884     0434  30D0               	movlw	208
  1885     0435  0700               	addwf	0,w
  1886     0436  00C6               	movwf	??_atoi
  1887     0437  300A               	movlw	10
  1888     0438  0246               	subwf	??_atoi,w
  1889     0439  1C03               	skipc
  1890     043A  2C3C               	goto	u1121
  1891     043B  2C3D               	goto	u1120
  1892     043C                     u1121:
  1893     043C  2C12               	goto	l1622
  1894     043D                     u1120:
  1895     043D                     l1628:
  1896     043D  0848               	movf	atoi@neg,w
  1897     043E  1D03               	btfss	3,2
  1898     043F  2C41               	goto	u1131
  1899     0440  2C42               	goto	u1130
  1900     0441                     u1131:
  1901     0441  2C4E               	goto	l1632
  1902     0442                     u1130:
  1903     0442                     l1630:
  1904     0442  0949               	comf	atoi@n,w
  1905     0443  00C6               	movwf	??_atoi
  1906     0444  094A               	comf	atoi@n+1,w
  1907     0445  00C7               	movwf	??_atoi+1
  1908     0446  0AC6               	incf	??_atoi,f
  1909     0447  1903               	skipnz
  1910     0448  0AC7               	incf	??_atoi+1,f
  1911     0449  0846               	movf	??_atoi,w
  1912     044A  00C4               	movwf	?_atoi
  1913     044B  0847               	movf	??_atoi+1,w
  1914     044C  00C5               	movwf	?_atoi+1
  1915     044D  2C52               	goto	l792
  1916     044E                     l1632:
  1917     044E  084A               	movf	atoi@n+1,w
  1918     044F  00C5               	movwf	?_atoi+1
  1919     0450  0849               	movf	atoi@n,w
  1920     0451  00C4               	movwf	?_atoi
  1921     0452                     l792:
  1922     0452  0008               	return
  1923     0453                     __end_of_atoi:
  1924                           
  1925                           	psect	text3
  1926     062C                     __ptext3:	
  1927 ;; *************** function ___wmul *****************
  1928 ;; Defined at:
  1929 ;;		line 15 in file "C:\Program Files\Microchip\xc8\v2.46\pic\sources\c99\common\Umul16.c"
  1930 ;; Parameters:    Size  Location     Type
  1931 ;;  multiplier      2   30[BANK0 ] unsigned int 
  1932 ;;  multiplicand    2   32[BANK0 ] unsigned int 
  1933 ;; Auto vars:     Size  Location     Type
  1934 ;;  product         2   34[BANK0 ] unsigned int 
  1935 ;; Return value:  Size  Location     Type
  1936 ;;                  2   30[BANK0 ] unsigned int 
  1937 ;; Registers used:
  1938 ;;		wreg, status,2, status,0
  1939 ;; Tracked objects:
  1940 ;;		On entry : 0/0
  1941 ;;		On exit  : 0/0
  1942 ;;		Unchanged: 0/0
  1943 ;; Data sizes:     COMMON   BANK0   BANK1
  1944 ;;      Params:         0       4       0
  1945 ;;      Locals:         0       2       0
  1946 ;;      Temps:          0       0       0
  1947 ;;      Totals:         0       6       0
  1948 ;;Total ram usage:        6 bytes
  1949 ;; Hardware stack levels used: 1
  1950 ;; Hardware stack levels required when called: 3
  1951 ;; This function calls:
  1952 ;;		Nothing
  1953 ;; This function is called by:
  1954 ;;		_atoi
  1955 ;; This function uses a non-reentrant model
  1956 ;;
  1957                           
  1958     062C                     ___wmul:	
  1959                           ;psect for function ___wmul
  1960                           
  1961     062C                     l1382:	
  1962                           ;incstack = 0
  1963                           ; Regs used in ___wmul: [wreg+status,2+status,0]
  1964                           
  1965     062C  1283               	bcf	3,5	;RP0=0, select bank0
  1966     062D  1303               	bcf	3,6	;RP1=0, select bank0
  1967     062E  01C2               	clrf	___wmul@product
  1968     062F  01C3               	clrf	___wmul@product+1
  1969     0630                     l1384:
  1970     0630  1C3E               	btfss	___wmul@multiplier,0
  1971     0631  2E33               	goto	u781
  1972     0632  2E34               	goto	u780
  1973     0633                     u781:
  1974     0633  2E3A               	goto	l320
  1975     0634                     u780:
  1976     0634                     l1386:
  1977     0634  0840               	movf	___wmul@multiplicand,w
  1978     0635  07C2               	addwf	___wmul@product,f
  1979     0636  1803               	skipnc
  1980     0637  0AC3               	incf	___wmul@product+1,f
  1981     0638  0841               	movf	___wmul@multiplicand+1,w
  1982     0639  07C3               	addwf	___wmul@product+1,f
  1983     063A                     l320:
  1984     063A  3001               	movlw	1
  1985     063B                     u795:
  1986     063B  1003               	clrc
  1987     063C  0DC0               	rlf	___wmul@multiplicand,f
  1988     063D  0DC1               	rlf	___wmul@multiplicand+1,f
  1989     063E  3EFF               	addlw	-1
  1990     063F  1D03               	skipz
  1991     0640  2E3B               	goto	u795
  1992     0641                     l1388:
  1993     0641  3001               	movlw	1
  1994     0642                     u805:
  1995     0642  1003               	clrc
  1996     0643  0CBF               	rrf	___wmul@multiplier+1,f
  1997     0644  0CBE               	rrf	___wmul@multiplier,f
  1998     0645  3EFF               	addlw	-1
  1999     0646  1D03               	skipz
  2000     0647  2E42               	goto	u805
  2001     0648                     l1390:
  2002     0648  083E               	movf	___wmul@multiplier,w
  2003     0649  043F               	iorwf	___wmul@multiplier+1,w
  2004     064A  1D03               	btfss	3,2
  2005     064B  2E4D               	goto	u811
  2006     064C  2E4E               	goto	u810
  2007     064D                     u811:
  2008     064D  2E30               	goto	l1384
  2009     064E                     u810:
  2010     064E                     l1392:
  2011     064E  0843               	movf	___wmul@product+1,w
  2012     064F  00BF               	movwf	?___wmul+1
  2013     0650  0842               	movf	___wmul@product,w
  2014     0651  00BE               	movwf	?___wmul
  2015     0652                     l322:
  2016     0652  0008               	return
  2017     0653                     __end_of___wmul:
  2018                           
  2019                           	psect	text4
  2020     0340                     __ptext4:	
  2021 ;; *************** function _Read_Keypad *****************
  2022 ;; Defined at:
  2023 ;;		line 276 in file "env_maestro.c"
  2024 ;; Parameters:    Size  Location     Type
  2025 ;;		None
  2026 ;; Auto vars:     Size  Location     Type
  2027 ;;  col             2   34[BANK0 ] int 
  2028 ;;  row             2   32[BANK0 ] int 
  2029 ;; Return value:  Size  Location     Type
  2030 ;;                  1    wreg      unsigned char 
  2031 ;; Registers used:
  2032 ;;		wreg, fsr0l, fsr0h, status,2, status,0, btemp+1, pclath
  2033 ;; Tracked objects:
  2034 ;;		On entry : 0/0
  2035 ;;		On exit  : 0/0
  2036 ;;		Unchanged: 0/0
  2037 ;; Data sizes:     COMMON   BANK0   BANK1
  2038 ;;      Params:         0       0       0
  2039 ;;      Locals:         0       4       0
  2040 ;;      Temps:          0       2       0
  2041 ;;      Totals:         0       6       0
  2042 ;;Total ram usage:        6 bytes
  2043 ;; Hardware stack levels used: 1
  2044 ;; Hardware stack levels required when called: 3
  2045 ;; This function calls:
  2046 ;;		Nothing
  2047 ;; This function is called by:
  2048 ;;		_main
  2049 ;; This function uses a non-reentrant model
  2050 ;;
  2051                           
  2052     0340                     _Read_Keypad:	
  2053                           ;psect for function _Read_Keypad
  2054                           
  2055     0340                     l1502:	
  2056                           ;incstack = 0
  2057                           ; Regs used in _Read_Keypad: [wreg-fsr0h+status,2+status,0+btemp+1+pclath]
  2058                           
  2059                           
  2060                           ;env_maestro.c: 277:     for(int row = 0; row < 4; row++) {
  2061     0340  1283               	bcf	3,5	;RP0=0, select bank0
  2062     0341  1303               	bcf	3,6	;RP1=0, select bank0
  2063     0342  01C0               	clrf	Read_Keypad@row
  2064     0343  01C1               	clrf	Read_Keypad@row+1
  2065     0344                     l1504:
  2066     0344  0841               	movf	Read_Keypad@row+1,w
  2067     0345  3A80               	xorlw	128
  2068     0346  00FF               	movwf	btemp+1
  2069     0347  3080               	movlw	128
  2070     0348  027F               	subwf	btemp+1,w
  2071     0349  1D03               	skipz
  2072     034A  2B4D               	goto	u975
  2073     034B  3004               	movlw	4
  2074     034C  0240               	subwf	Read_Keypad@row,w
  2075     034D                     u975:
  2076     034D  1C03               	skipc
  2077     034E  2B50               	goto	u971
  2078     034F  2B51               	goto	u970
  2079     0350                     u971:
  2080     0350  2B52               	goto	l1508
  2081     0351                     u970:
  2082     0351  2BD9               	goto	l1542
  2083     0352                     l1508:
  2084                           
  2085                           ;env_maestro.c: 279:         PORTB = (unsigned char)~(0x10 << row);
  2086     0352  3010               	movlw	16
  2087     0353  1283               	bcf	3,5	;RP0=0, select bank0
  2088     0354  1303               	bcf	3,6	;RP1=0, select bank0
  2089     0355  00BE               	movwf	??_Read_Keypad
  2090     0356  0A40               	incf	Read_Keypad@row,w
  2091     0357  2B5A               	goto	u984
  2092     0358                     u985:
  2093     0358  1003               	clrc
  2094     0359  0DBE               	rlf	??_Read_Keypad,f
  2095     035A                     u984:
  2096     035A  3EFF               	addlw	-1
  2097     035B  1D03               	skipz
  2098     035C  2B58               	goto	u985
  2099     035D  083E               	movf	??_Read_Keypad,w
  2100     035E  3AFF               	xorlw	255
  2101     035F  0086               	movwf	6	;volatile
  2102     0360                     l1510:
  2103                           
  2104                           ;env_maestro.c: 282:         TRISB = 0x0F;
  2105     0360  300F               	movlw	15
  2106     0361  1683               	bsf	3,5	;RP0=1, select bank1
  2107     0362  1303               	bcf	3,6	;RP1=0, select bank1
  2108     0363  0086               	movwf	6	;volatile
  2109     0364                     l1512:
  2110                           
  2111                           ;env_maestro.c: 284:         _delay((unsigned long)((20)*(4000000/4000.0)));
  2112     0364  301A               	movlw	26
  2113     0365  1283               	bcf	3,5	;RP0=0, select bank0
  2114     0366  1303               	bcf	3,6	;RP1=0, select bank0
  2115     0367  00BF               	movwf	??_Read_Keypad+1
  2116     0368  30F8               	movlw	248
  2117     0369  00BE               	movwf	??_Read_Keypad
  2118     036A                     u1797:
  2119     036A  0BBE               	decfsz	??_Read_Keypad,f
  2120     036B  2B6A               	goto	u1797
  2121     036C  0BBF               	decfsz	??_Read_Keypad+1,f
  2122     036D  2B6A               	goto	u1797
  2123     036E                     l1514:
  2124                           
  2125                           ;env_maestro.c: 286:         for(int col = 0; col < 4; col++) {
  2126     036E  1283               	bcf	3,5	;RP0=0, select bank0
  2127     036F  1303               	bcf	3,6	;RP1=0, select bank0
  2128     0370  01C2               	clrf	Read_Keypad@col
  2129     0371  01C3               	clrf	Read_Keypad@col+1
  2130     0372                     l1520:
  2131                           
  2132                           ;env_maestro.c: 288:             if(!(PORTB & (0x01 << col))) {
  2133     0372  3001               	movlw	1
  2134     0373  1283               	bcf	3,5	;RP0=0, select bank0
  2135     0374  1303               	bcf	3,6	;RP1=0, select bank0
  2136     0375  00BE               	movwf	??_Read_Keypad
  2137     0376  0A42               	incf	Read_Keypad@col,w
  2138     0377  2B7A               	goto	u994
  2139     0378                     u995:
  2140     0378  1003               	clrc
  2141     0379  0DBE               	rlf	??_Read_Keypad,f
  2142     037A                     u994:
  2143     037A  3EFF               	addlw	-1
  2144     037B  1D03               	skipz
  2145     037C  2B78               	goto	u995
  2146     037D  083E               	movf	??_Read_Keypad,w
  2147     037E  0506               	andwf	6,w	;volatile
  2148     037F  1D03               	btfss	3,2
  2149     0380  2B82               	goto	u1001
  2150     0381  2B83               	goto	u1000
  2151     0382                     u1001:
  2152     0382  2BB9               	goto	l1534
  2153     0383                     u1000:
  2154     0383                     l1524:
  2155     0383  3001               	movlw	1
  2156     0384  00BE               	movwf	??_Read_Keypad
  2157     0385  0A42               	incf	Read_Keypad@col,w
  2158     0386  2B89               	goto	u1014
  2159     0387                     u1015:
  2160     0387  1003               	clrc
  2161     0388  0DBE               	rlf	??_Read_Keypad,f
  2162     0389                     u1014:
  2163     0389  3EFF               	addlw	-1
  2164     038A  1D03               	skipz
  2165     038B  2B87               	goto	u1015
  2166     038C  083E               	movf	??_Read_Keypad,w
  2167     038D  0506               	andwf	6,w	;volatile
  2168     038E  1903               	btfsc	3,2
  2169     038F  2B91               	goto	u1021
  2170     0390  2B92               	goto	u1020
  2171     0391                     u1021:
  2172     0391  2B83               	goto	l1524
  2173     0392                     u1020:
  2174     0392                     l184:
  2175                           
  2176                           ;env_maestro.c: 290:                 PORTAbits.RA3 = 0;
  2177     0392  1185               	bcf	5,3	;volatile
  2178     0393                     l1526:
  2179                           
  2180                           ;env_maestro.c: 291:                 _delay((unsigned long)((100)*(4000000/4000.0)));
  2181     0393  3082               	movlw	130
  2182     0394  1283               	bcf	3,5	;RP0=0, select bank0
  2183     0395  1303               	bcf	3,6	;RP1=0, select bank0
  2184     0396  00BF               	movwf	??_Read_Keypad+1
  2185     0397  30DD               	movlw	221
  2186     0398  00BE               	movwf	??_Read_Keypad
  2187     0399                     u1807:
  2188     0399  0BBE               	decfsz	??_Read_Keypad,f
  2189     039A  2B99               	goto	u1807
  2190     039B  0BBF               	decfsz	??_Read_Keypad+1,f
  2191     039C  2B99               	goto	u1807
  2192     039D  0000               	nop
  2193     039E                     l1528:
  2194                           
  2195                           ;env_maestro.c: 292:                 PORTAbits.RA3 = 1;
  2196     039E  1283               	bcf	3,5	;RP0=0, select bank0
  2197     039F  1303               	bcf	3,6	;RP1=0, select bank0
  2198     03A0  1585               	bsf	5,3	;volatile
  2199                           
  2200                           ;env_maestro.c: 294:                 TRISB = 0xF0;
  2201     03A1  30F0               	movlw	240
  2202     03A2  1683               	bsf	3,5	;RP0=1, select bank1
  2203     03A3  1303               	bcf	3,6	;RP1=0, select bank1
  2204     03A4  0086               	movwf	6	;volatile
  2205     03A5                     l1530:
  2206                           
  2207                           ;env_maestro.c: 296:                 return teclas[row][col];
  2208     03A5  1283               	bcf	3,5	;RP0=0, select bank0
  2209     03A6  1303               	bcf	3,6	;RP1=0, select bank0
  2210     03A7  0840               	movf	Read_Keypad@row,w
  2211     03A8  00BE               	movwf	??_Read_Keypad
  2212     03A9  3002               	movlw	2
  2213     03AA                     u1035:
  2214     03AA  1003               	clrc
  2215     03AB  0DBE               	rlf	??_Read_Keypad,f
  2216     03AC  3EFF               	addlw	-1
  2217     03AD  1D03               	skipz
  2218     03AE  2BAA               	goto	u1035
  2219     03AF  3001               	movlw	(low ((_teclas-__stringbase)| (0+32768)))& (0+255)
  2220     03B0  073E               	addwf	??_Read_Keypad,w
  2221     03B1  00BF               	movwf	??_Read_Keypad+1
  2222     03B2  0842               	movf	Read_Keypad@col,w
  2223     03B3  073F               	addwf	??_Read_Keypad+1,w
  2224     03B4  0084               	movwf	4
  2225     03B5  118A  257A  118A   	fcall	stringdir
  2226     03B8  2BDA               	goto	l185
  2227     03B9                     l1534:
  2228                           
  2229                           ;env_maestro.c: 298:         }
  2230     03B9  3001               	movlw	1
  2231     03BA  07C2               	addwf	Read_Keypad@col,f
  2232     03BB  1803               	skipnc
  2233     03BC  0AC3               	incf	Read_Keypad@col+1,f
  2234     03BD  3000               	movlw	0
  2235     03BE  07C3               	addwf	Read_Keypad@col+1,f
  2236     03BF                     l1536:
  2237     03BF  0843               	movf	Read_Keypad@col+1,w
  2238     03C0  3A80               	xorlw	128
  2239     03C1  00FF               	movwf	btemp+1
  2240     03C2  3080               	movlw	128
  2241     03C3  027F               	subwf	btemp+1,w
  2242     03C4  1D03               	skipz
  2243     03C5  2BC8               	goto	u1045
  2244     03C6  3004               	movlw	4
  2245     03C7  0242               	subwf	Read_Keypad@col,w
  2246     03C8                     u1045:
  2247     03C8  1C03               	skipc
  2248     03C9  2BCB               	goto	u1041
  2249     03CA  2BCC               	goto	u1040
  2250     03CB                     u1041:
  2251     03CB  2B72               	goto	l1520
  2252     03CC                     u1040:
  2253     03CC                     l1538:
  2254                           
  2255                           ;env_maestro.c: 301:         TRISB = 0xF0;
  2256     03CC  30F0               	movlw	240
  2257     03CD  1683               	bsf	3,5	;RP0=1, select bank1
  2258     03CE  1303               	bcf	3,6	;RP1=0, select bank1
  2259     03CF  0086               	movwf	6	;volatile
  2260                           
  2261                           ;env_maestro.c: 302:     }
  2262     03D0  3001               	movlw	1
  2263     03D1  1283               	bcf	3,5	;RP0=0, select bank0
  2264     03D2  1303               	bcf	3,6	;RP1=0, select bank0
  2265     03D3  07C0               	addwf	Read_Keypad@row,f
  2266     03D4  1803               	skipnc
  2267     03D5  0AC1               	incf	Read_Keypad@row+1,f
  2268     03D6  3000               	movlw	0
  2269     03D7  07C1               	addwf	Read_Keypad@row+1,f
  2270     03D8  2B44               	goto	l1504
  2271     03D9                     l1542:
  2272                           
  2273                           ;env_maestro.c: 304:     return 0;
  2274     03D9  3000               	movlw	0
  2275     03DA                     l185:
  2276     03DA  0008               	return
  2277     03DB                     __end_of_Read_Keypad:
  2278                           
  2279                           	psect	text5
  2280     07C7                     __ptext5:	
  2281 ;; *************** function _Prepare_LCD_Pins *****************
  2282 ;; Defined at:
  2283 ;;		line 309 in file "env_maestro.c"
  2284 ;; Parameters:    Size  Location     Type
  2285 ;;		None
  2286 ;; Auto vars:     Size  Location     Type
  2287 ;;		None
  2288 ;; Return value:  Size  Location     Type
  2289 ;;                  1    wreg      void 
  2290 ;; Registers used:
  2291 ;;		status,2
  2292 ;; Tracked objects:
  2293 ;;		On entry : 0/0
  2294 ;;		On exit  : 0/0
  2295 ;;		Unchanged: 0/0
  2296 ;; Data sizes:     COMMON   BANK0   BANK1
  2297 ;;      Params:         0       0       0
  2298 ;;      Locals:         0       0       0
  2299 ;;      Temps:          0       0       0
  2300 ;;      Totals:         0       0       0
  2301 ;;Total ram usage:        0 bytes
  2302 ;; Hardware stack levels used: 1
  2303 ;; Hardware stack levels required when called: 3
  2304 ;; This function calls:
  2305 ;;		Nothing
  2306 ;; This function is called by:
  2307 ;;		_main
  2308 ;; This function uses a non-reentrant model
  2309 ;;
  2310                           
  2311     07C7                     _Prepare_LCD_Pins:	
  2312                           ;psect for function _Prepare_LCD_Pins
  2313                           
  2314     07C7                     l1558:	
  2315                           ;incstack = 0
  2316                           ; Regs used in _Prepare_LCD_Pins: [status,2]
  2317                           
  2318                           
  2319                           ;env_maestro.c: 311:     TRISB = 0x00;
  2320     07C7  1683               	bsf	3,5	;RP0=1, select bank1
  2321     07C8  1303               	bcf	3,6	;RP1=0, select bank1
  2322     07C9  0186               	clrf	6	;volatile
  2323     07CA                     l188:
  2324     07CA  0008               	return
  2325     07CB                     __end_of_Prepare_LCD_Pins:
  2326                           
  2327                           	psect	text6
  2328     07A0                     __ptext6:	
  2329 ;; *************** function _Prepare_Keypad_Pins *****************
  2330 ;; Defined at:
  2331 ;;		line 314 in file "env_maestro.c"
  2332 ;; Parameters:    Size  Location     Type
  2333 ;;		None
  2334 ;; Auto vars:     Size  Location     Type
  2335 ;;		None
  2336 ;; Return value:  Size  Location     Type
  2337 ;;                  1    wreg      void 
  2338 ;; Registers used:
  2339 ;;		wreg
  2340 ;; Tracked objects:
  2341 ;;		On entry : 0/0
  2342 ;;		On exit  : 0/0
  2343 ;;		Unchanged: 0/0
  2344 ;; Data sizes:     COMMON   BANK0   BANK1
  2345 ;;      Params:         0       0       0
  2346 ;;      Locals:         0       0       0
  2347 ;;      Temps:          0       0       0
  2348 ;;      Totals:         0       0       0
  2349 ;;Total ram usage:        0 bytes
  2350 ;; Hardware stack levels used: 1
  2351 ;; Hardware stack levels required when called: 3
  2352 ;; This function calls:
  2353 ;;		Nothing
  2354 ;; This function is called by:
  2355 ;;		_main
  2356 ;; This function uses a non-reentrant model
  2357 ;;
  2358                           
  2359     07A0                     _Prepare_Keypad_Pins:	
  2360                           ;psect for function _Prepare_Keypad_Pins
  2361                           
  2362     07A0                     l1500:	
  2363                           ;incstack = 0
  2364                           ; Regs used in _Prepare_Keypad_Pins: [wreg]
  2365                           
  2366                           
  2367                           ;env_maestro.c: 316:     TRISB = 0xF0;
  2368     07A0  30F0               	movlw	240
  2369     07A1  1683               	bsf	3,5	;RP0=1, select bank1
  2370     07A2  1303               	bcf	3,6	;RP1=0, select bank1
  2371     07A3  0086               	movwf	6	;volatile
  2372                           
  2373                           ;env_maestro.c: 317:     PORTB = 0x0F;
  2374     07A4  300F               	movlw	15
  2375     07A5  1283               	bcf	3,5	;RP0=0, select bank0
  2376     07A6  1303               	bcf	3,6	;RP1=0, select bank0
  2377     07A7  0086               	movwf	6	;volatile
  2378     07A8                     l191:
  2379     07A8  0008               	return
  2380     07A9                     __end_of_Prepare_Keypad_Pins:
  2381                           
  2382                           	psect	text7
  2383     06B5                     __ptext7:	
  2384 ;; *************** function _LCD_setCursor *****************
  2385 ;; Defined at:
  2386 ;;		line 254 in file "env_maestro.c"
  2387 ;; Parameters:    Size  Location     Type
  2388 ;;  row             1    wreg     unsigned char 
  2389 ;;  column          1   33[BANK0 ] unsigned char 
  2390 ;; Auto vars:     Size  Location     Type
  2391 ;;  row             1   34[BANK0 ] unsigned char 
  2392 ;;  position        1   37[BANK0 ] unsigned char 
  2393 ;; Return value:  Size  Location     Type
  2394 ;;                  1    wreg      void 
  2395 ;; Registers used:
  2396 ;;		wreg, status,2, status,0, btemp+1, pclath, cstack
  2397 ;; Tracked objects:
  2398 ;;		On entry : 0/0
  2399 ;;		On exit  : 0/0
  2400 ;;		Unchanged: 0/0
  2401 ;; Data sizes:     COMMON   BANK0   BANK1
  2402 ;;      Params:         0       1       0
  2403 ;;      Locals:         0       4       0
  2404 ;;      Temps:          0       0       0
  2405 ;;      Totals:         0       5       0
  2406 ;;Total ram usage:        5 bytes
  2407 ;; Hardware stack levels used: 1
  2408 ;; Hardware stack levels required when called: 4
  2409 ;; This function calls:
  2410 ;;		_LCD_command
  2411 ;; This function is called by:
  2412 ;;		_main
  2413 ;; This function uses a non-reentrant model
  2414 ;;
  2415                           
  2416     06B5                     _LCD_setCursor:	
  2417                           ;psect for function _LCD_setCursor
  2418                           
  2419                           
  2420                           ;incstack = 0
  2421                           ; Regs used in _LCD_setCursor: [wreg+status,2+status,0+btemp+1+pclath+cstack]
  2422                           ;LCD_setCursor@row stored from wreg
  2423     06B5  1283               	bcf	3,5	;RP0=0, select bank0
  2424     06B6  1303               	bcf	3,6	;RP1=0, select bank0
  2425     06B7  00C2               	movwf	LCD_setCursor@row
  2426     06B8                     l1564:
  2427                           
  2428                           ;env_maestro.c: 255:     unsigned char position = (row == 1) ? 0x80 : 0xC0;
  2429     06B8  0342               	decf	LCD_setCursor@row,w
  2430     06B9  1903               	btfsc	3,2
  2431     06BA  2EBC               	goto	u1051
  2432     06BB  2EBD               	goto	u1050
  2433     06BC                     u1051:
  2434     06BC  2EC2               	goto	l1568
  2435     06BD                     u1050:
  2436     06BD                     l1566:
  2437     06BD  30C0               	movlw	192
  2438     06BE  00C3               	movwf	_LCD_setCursor$303
  2439     06BF  3000               	movlw	0
  2440     06C0  00C4               	movwf	_LCD_setCursor$303+1
  2441     06C1  2EC6               	goto	l164
  2442     06C2                     l1568:
  2443     06C2  3080               	movlw	128
  2444     06C3  00C3               	movwf	_LCD_setCursor$303
  2445     06C4  3000               	movlw	0
  2446     06C5  00C4               	movwf	_LCD_setCursor$303+1
  2447     06C6                     l164:
  2448     06C6  0843               	movf	_LCD_setCursor$303,w
  2449     06C7  00C5               	movwf	LCD_setCursor@position
  2450     06C8                     l1570:
  2451                           
  2452                           ;env_maestro.c: 256:     position += column;
  2453     06C8  0841               	movf	LCD_setCursor@column,w
  2454     06C9  00FF               	movwf	btemp+1
  2455     06CA  087F               	movf	btemp+1,w
  2456     06CB  07C5               	addwf	LCD_setCursor@position,f
  2457     06CC                     l1572:
  2458                           
  2459                           ;env_maestro.c: 257:     LCD_command(position);
  2460     06CC  0845               	movf	LCD_setCursor@position,w
  2461     06CD  118A  2704  118A   	fcall	_LCD_command
  2462     06D0                     l165:
  2463     06D0  0008               	return
  2464     06D1                     __end_of_LCD_setCursor:
  2465                           
  2466                           	psect	text8
  2467     0653                     __ptext8:	
  2468 ;; *************** function _LCD_print *****************
  2469 ;; Defined at:
  2470 ;;		line 260 in file "env_maestro.c"
  2471 ;; Parameters:    Size  Location     Type
  2472 ;;  string          2   33[BANK0 ] PTR const unsigned char 
  2473 ;;		 -> STR_3(13), ISR@receiveBuffer(16), STR_2(17), STR_1(8), 
  2474 ;;		 -> displayString(17), 
  2475 ;; Auto vars:     Size  Location     Type
  2476 ;;		None
  2477 ;; Return value:  Size  Location     Type
  2478 ;;                  1    wreg      void 
  2479 ;; Registers used:
  2480 ;;		wreg, fsr0l, fsr0h, status,2, status,0, btemp+1, pclath, cstack
  2481 ;; Tracked objects:
  2482 ;;		On entry : 0/0
  2483 ;;		On exit  : 0/0
  2484 ;;		Unchanged: 0/0
  2485 ;; Data sizes:     COMMON   BANK0   BANK1
  2486 ;;      Params:         0       2       0
  2487 ;;      Locals:         0       0       0
  2488 ;;      Temps:          0       0       0
  2489 ;;      Totals:         0       2       0
  2490 ;;Total ram usage:        2 bytes
  2491 ;; Hardware stack levels used: 1
  2492 ;; Hardware stack levels required when called: 4
  2493 ;; This function calls:
  2494 ;;		_LCD_data
  2495 ;; This function is called by:
  2496 ;;		_main
  2497 ;; This function uses a non-reentrant model
  2498 ;;
  2499                           
  2500     0653                     _LCD_print:	
  2501                           ;psect for function _LCD_print
  2502                           
  2503     0653                     l1574:	
  2504                           ;incstack = 0
  2505                           ; Regs used in _LCD_print: [wreg-fsr0h+status,2+status,0+btemp+1+pclath+cstack]
  2506                           
  2507                           
  2508                           ;env_maestro.c: 261:     while(*string) {
  2509     0653  2E66               	goto	l1580
  2510     0654                     l1576:
  2511                           
  2512                           ;env_maestro.c: 262:         LCD_data(*string++);
  2513     0654  0842               	movf	LCD_print@string+1,w
  2514     0655  00FF               	movwf	btemp+1
  2515     0656  0841               	movf	LCD_print@string,w
  2516     0657  0084               	movwf	4
  2517     0658  118A  2570  118A   	fcall	stringtab
  2518     065B  118A  26ED  118A   	fcall	_LCD_data
  2519     065E                     l1578:
  2520     065E  3001               	movlw	1
  2521     065F  1283               	bcf	3,5	;RP0=0, select bank0
  2522     0660  1303               	bcf	3,6	;RP1=0, select bank0
  2523     0661  07C1               	addwf	LCD_print@string,f
  2524     0662  1803               	skipnc
  2525     0663  0AC2               	incf	LCD_print@string+1,f
  2526     0664  3000               	movlw	0
  2527     0665  07C2               	addwf	LCD_print@string+1,f
  2528     0666                     l1580:
  2529                           
  2530                           ;env_maestro.c: 261:     while(*string) {
  2531     0666  1283               	bcf	3,5	;RP0=0, select bank0
  2532     0667  1303               	bcf	3,6	;RP1=0, select bank0
  2533     0668  0842               	movf	LCD_print@string+1,w
  2534     0669  00FF               	movwf	btemp+1
  2535     066A  0841               	movf	LCD_print@string,w
  2536     066B  0084               	movwf	4
  2537     066C  118A  2570  118A   	fcall	stringtab
  2538     066F  3A00               	xorlw	0
  2539     0670  1D03               	skipz
  2540     0671  2E73               	goto	u1061
  2541     0672  2E74               	goto	u1060
  2542     0673                     u1061:
  2543     0673  2E54               	goto	l1576
  2544     0674                     u1060:
  2545     0674                     l171:
  2546     0674  0008               	return
  2547     0675                     __end_of_LCD_print:
  2548                           
  2549                           	psect	text9
  2550     06ED                     __ptext9:	
  2551 ;; *************** function _LCD_data *****************
  2552 ;; Defined at:
  2553 ;;		line 217 in file "env_maestro.c"
  2554 ;; Parameters:    Size  Location     Type
  2555 ;;  data            1    wreg     unsigned char 
  2556 ;; Auto vars:     Size  Location     Type
  2557 ;;  data            1   32[BANK0 ] unsigned char 
  2558 ;; Return value:  Size  Location     Type
  2559 ;;                  1    wreg      void 
  2560 ;; Registers used:
  2561 ;;		wreg
  2562 ;; Tracked objects:
  2563 ;;		On entry : 0/0
  2564 ;;		On exit  : 0/0
  2565 ;;		Unchanged: 0/0
  2566 ;; Data sizes:     COMMON   BANK0   BANK1
  2567 ;;      Params:         0       0       0
  2568 ;;      Locals:         0       1       0
  2569 ;;      Temps:          0       2       0
  2570 ;;      Totals:         0       3       0
  2571 ;;Total ram usage:        3 bytes
  2572 ;; Hardware stack levels used: 1
  2573 ;; Hardware stack levels required when called: 3
  2574 ;; This function calls:
  2575 ;;		Nothing
  2576 ;; This function is called by:
  2577 ;;		_LCD_print
  2578 ;; This function uses a non-reentrant model
  2579 ;;
  2580                           
  2581     06ED                     _LCD_data:	
  2582                           ;psect for function _LCD_data
  2583                           
  2584                           
  2585                           ;incstack = 0
  2586                           ; Regs used in _LCD_data: [wreg]
  2587                           ;LCD_data@data stored from wreg
  2588     06ED  1283               	bcf	3,5	;RP0=0, select bank0
  2589     06EE  1303               	bcf	3,6	;RP1=0, select bank0
  2590     06EF  00C0               	movwf	LCD_data@data
  2591     06F0                     l1368:
  2592                           
  2593                           ;env_maestro.c: 218:     RA0 = 1;
  2594     06F0  1405               	bsf	5,0	;volatile
  2595                           
  2596                           ;env_maestro.c: 219:     RA1 = 0;
  2597     06F1  1085               	bcf	5,1	;volatile
  2598     06F2                     l1370:
  2599                           
  2600                           ;env_maestro.c: 220:     PORTB = data;
  2601     06F2  0840               	movf	LCD_data@data,w
  2602     06F3  0086               	movwf	6	;volatile
  2603     06F4                     l1372:
  2604                           
  2605                           ;env_maestro.c: 221:     RA2 = 1;
  2606     06F4  1505               	bsf	5,2	;volatile
  2607                           
  2608                           ;env_maestro.c: 222:     _delay((unsigned long)((2)*(4000000/4000.0)));
  2609     06F5  3003               	movlw	3
  2610     06F6  1283               	bcf	3,5	;RP0=0, select bank0
  2611     06F7  1303               	bcf	3,6	;RP1=0, select bank0
  2612     06F8  00BF               	movwf	??_LCD_data+1
  2613     06F9  3097               	movlw	151
  2614     06FA  00BE               	movwf	??_LCD_data
  2615     06FB                     u1817:
  2616     06FB  0BBE               	decfsz	??_LCD_data,f
  2617     06FC  2EFB               	goto	u1817
  2618     06FD  0BBF               	decfsz	??_LCD_data+1,f
  2619     06FE  2EFB               	goto	u1817
  2620     06FF  0000               	nop
  2621     0700                     l1374:
  2622                           
  2623                           ;env_maestro.c: 223:     RA2 = 0;
  2624     0700  1283               	bcf	3,5	;RP0=0, select bank0
  2625     0701  1303               	bcf	3,6	;RP1=0, select bank0
  2626     0702  1105               	bcf	5,2	;volatile
  2627     0703                     l152:
  2628     0703  0008               	return
  2629     0704                     __end_of_LCD_data:
  2630                           
  2631                           	psect	text10
  2632     0523                     __ptext10:	
  2633 ;; *************** function _LCD_init *****************
  2634 ;; Defined at:
  2635 ;;		line 226 in file "env_maestro.c"
  2636 ;; Parameters:    Size  Location     Type
  2637 ;;		None
  2638 ;; Auto vars:     Size  Location     Type
  2639 ;;		None
  2640 ;; Return value:  Size  Location     Type
  2641 ;;                  1    wreg      void 
  2642 ;; Registers used:
  2643 ;;		wreg, status,2, status,0, pclath, cstack
  2644 ;; Tracked objects:
  2645 ;;		On entry : 0/0
  2646 ;;		On exit  : 0/0
  2647 ;;		Unchanged: 0/0
  2648 ;; Data sizes:     COMMON   BANK0   BANK1
  2649 ;;      Params:         0       0       0
  2650 ;;      Locals:         0       0       0
  2651 ;;      Temps:          0       2       0
  2652 ;;      Totals:         0       2       0
  2653 ;;Total ram usage:        2 bytes
  2654 ;; Hardware stack levels used: 1
  2655 ;; Hardware stack levels required when called: 4
  2656 ;; This function calls:
  2657 ;;		_LCD_command
  2658 ;; This function is called by:
  2659 ;;		_main
  2660 ;; This function uses a non-reentrant model
  2661 ;;
  2662                           
  2663     0523                     _LCD_init:	
  2664                           ;psect for function _LCD_init
  2665                           
  2666     0523                     l1464:	
  2667                           ;incstack = 0
  2668                           ; Regs used in _LCD_init: [wreg+status,2+status,0+pclath+cstack]
  2669                           
  2670                           
  2671                           ;env_maestro.c: 228:     ADCON1 = 0x07;
  2672     0523  3007               	movlw	7
  2673     0524  1683               	bsf	3,5	;RP0=1, select bank1
  2674     0525  1303               	bcf	3,6	;RP1=0, select bank1
  2675     0526  009F               	movwf	31	;volatile
  2676     0527                     l1466:
  2677                           
  2678                           ;env_maestro.c: 229:     TRISA = 0x00;
  2679     0527  0185               	clrf	5	;volatile
  2680     0528                     l1468:
  2681                           
  2682                           ;env_maestro.c: 230:     TRISB = 0x00;
  2683     0528  0186               	clrf	6	;volatile
  2684                           
  2685                           ;env_maestro.c: 233:     _delay((unsigned long)((20)*(4000000/4000.0)));
  2686     0529  301A               	movlw	26
  2687     052A  1283               	bcf	3,5	;RP0=0, select bank0
  2688     052B  1303               	bcf	3,6	;RP1=0, select bank0
  2689     052C  00C2               	movwf	??_LCD_init+1
  2690     052D  30F8               	movlw	248
  2691     052E  00C1               	movwf	??_LCD_init
  2692     052F                     u1827:
  2693     052F  0BC1               	decfsz	??_LCD_init,f
  2694     0530  2D2F               	goto	u1827
  2695     0531  0BC2               	decfsz	??_LCD_init+1,f
  2696     0532  2D2F               	goto	u1827
  2697     0533                     l1470:
  2698                           
  2699                           ;env_maestro.c: 236:     LCD_command(0x38);
  2700     0533  3038               	movlw	56
  2701     0534  118A  2704  118A   	fcall	_LCD_command
  2702     0537                     l1472:
  2703                           
  2704                           ;env_maestro.c: 237:     _delay((unsigned long)((5)*(4000000/4000.0)));
  2705     0537  3007               	movlw	7
  2706     0538  1283               	bcf	3,5	;RP0=0, select bank0
  2707     0539  1303               	bcf	3,6	;RP1=0, select bank0
  2708     053A  00C2               	movwf	??_LCD_init+1
  2709     053B  307C               	movlw	124
  2710     053C  00C1               	movwf	??_LCD_init
  2711     053D                     u1837:
  2712     053D  0BC1               	decfsz	??_LCD_init,f
  2713     053E  2D3D               	goto	u1837
  2714     053F  0BC2               	decfsz	??_LCD_init+1,f
  2715     0540  2D3D               	goto	u1837
  2716     0541  2D42               	nop2
  2717                           
  2718                           ;env_maestro.c: 239:     LCD_command(0x0F);
  2719     0542  300F               	movlw	15
  2720     0543  118A  2704  118A   	fcall	_LCD_command
  2721     0546                     l1474:
  2722                           
  2723                           ;env_maestro.c: 240:     _delay((unsigned long)((5)*(4000000/4000.0)));
  2724     0546  3007               	movlw	7
  2725     0547  1283               	bcf	3,5	;RP0=0, select bank0
  2726     0548  1303               	bcf	3,6	;RP1=0, select bank0
  2727     0549  00C2               	movwf	??_LCD_init+1
  2728     054A  307C               	movlw	124
  2729     054B  00C1               	movwf	??_LCD_init
  2730     054C                     u1847:
  2731     054C  0BC1               	decfsz	??_LCD_init,f
  2732     054D  2D4C               	goto	u1847
  2733     054E  0BC2               	decfsz	??_LCD_init+1,f
  2734     054F  2D4C               	goto	u1847
  2735     0550  2D51               	nop2
  2736     0551                     l1476:
  2737                           
  2738                           ;env_maestro.c: 242:     LCD_command(0x01);
  2739     0551  3001               	movlw	1
  2740     0552  118A  2704  118A   	fcall	_LCD_command
  2741                           
  2742                           ;env_maestro.c: 243:     _delay((unsigned long)((2)*(4000000/4000.0)));
  2743     0555  3003               	movlw	3
  2744     0556  1283               	bcf	3,5	;RP0=0, select bank0
  2745     0557  1303               	bcf	3,6	;RP1=0, select bank0
  2746     0558  00C2               	movwf	??_LCD_init+1
  2747     0559  3097               	movlw	151
  2748     055A  00C1               	movwf	??_LCD_init
  2749     055B                     u1857:
  2750     055B  0BC1               	decfsz	??_LCD_init,f
  2751     055C  2D5B               	goto	u1857
  2752     055D  0BC2               	decfsz	??_LCD_init+1,f
  2753     055E  2D5B               	goto	u1857
  2754     055F  0000               	nop
  2755     0560                     l1478:
  2756                           
  2757                           ;env_maestro.c: 245:     LCD_command(0x02);
  2758     0560  3002               	movlw	2
  2759     0561  118A  2704  118A   	fcall	_LCD_command
  2760     0564                     l1480:
  2761                           
  2762                           ;env_maestro.c: 246:     _delay((unsigned long)((2)*(4000000/4000.0)));
  2763     0564  3003               	movlw	3
  2764     0565  1283               	bcf	3,5	;RP0=0, select bank0
  2765     0566  1303               	bcf	3,6	;RP1=0, select bank0
  2766     0567  00C2               	movwf	??_LCD_init+1
  2767     0568  3097               	movlw	151
  2768     0569  00C1               	movwf	??_LCD_init
  2769     056A                     u1867:
  2770     056A  0BC1               	decfsz	??_LCD_init,f
  2771     056B  2D6A               	goto	u1867
  2772     056C  0BC2               	decfsz	??_LCD_init+1,f
  2773     056D  2D6A               	goto	u1867
  2774     056E  0000               	nop
  2775     056F                     l155:
  2776     056F  0008               	return
  2777     0570                     __end_of_LCD_init:
  2778                           
  2779                           	psect	text11
  2780     075D                     __ptext11:	
  2781 ;; *************** function _LCD_clear *****************
  2782 ;; Defined at:
  2783 ;;		line 249 in file "env_maestro.c"
  2784 ;; Parameters:    Size  Location     Type
  2785 ;;		None
  2786 ;; Auto vars:     Size  Location     Type
  2787 ;;		None
  2788 ;; Return value:  Size  Location     Type
  2789 ;;                  1    wreg      void 
  2790 ;; Registers used:
  2791 ;;		wreg, status,2, status,0, pclath, cstack
  2792 ;; Tracked objects:
  2793 ;;		On entry : 0/0
  2794 ;;		On exit  : 0/0
  2795 ;;		Unchanged: 0/0
  2796 ;; Data sizes:     COMMON   BANK0   BANK1
  2797 ;;      Params:         0       0       0
  2798 ;;      Locals:         0       0       0
  2799 ;;      Temps:          0       2       0
  2800 ;;      Totals:         0       2       0
  2801 ;;Total ram usage:        2 bytes
  2802 ;; Hardware stack levels used: 1
  2803 ;; Hardware stack levels required when called: 4
  2804 ;; This function calls:
  2805 ;;		_LCD_command
  2806 ;; This function is called by:
  2807 ;;		_main
  2808 ;; This function uses a non-reentrant model
  2809 ;;
  2810                           
  2811     075D                     _LCD_clear:	
  2812                           ;psect for function _LCD_clear
  2813                           
  2814     075D                     l1560:	
  2815                           ;incstack = 0
  2816                           ; Regs used in _LCD_clear: [wreg+status,2+status,0+pclath+cstack]
  2817                           
  2818                           
  2819                           ;env_maestro.c: 250:     LCD_command(0x01);
  2820     075D  3001               	movlw	1
  2821     075E  118A  2704  118A   	fcall	_LCD_command
  2822     0761                     l1562:
  2823                           
  2824                           ;env_maestro.c: 251:     _delay((unsigned long)((2)*(4000000/4000.0)));
  2825     0761  3003               	movlw	3
  2826     0762  1283               	bcf	3,5	;RP0=0, select bank0
  2827     0763  1303               	bcf	3,6	;RP1=0, select bank0
  2828     0764  00C2               	movwf	??_LCD_clear+1
  2829     0765  3097               	movlw	151
  2830     0766  00C1               	movwf	??_LCD_clear
  2831     0767                     u1877:
  2832     0767  0BC1               	decfsz	??_LCD_clear,f
  2833     0768  2F67               	goto	u1877
  2834     0769  0BC2               	decfsz	??_LCD_clear+1,f
  2835     076A  2F67               	goto	u1877
  2836     076B  0000               	nop
  2837     076C                     l158:
  2838     076C  0008               	return
  2839     076D                     __end_of_LCD_clear:
  2840                           
  2841                           	psect	text12
  2842     0704                     __ptext12:	
  2843 ;; *************** function _LCD_command *****************
  2844 ;; Defined at:
  2845 ;;		line 208 in file "env_maestro.c"
  2846 ;; Parameters:    Size  Location     Type
  2847 ;;  command         1    wreg     unsigned char 
  2848 ;; Auto vars:     Size  Location     Type
  2849 ;;  command         1   32[BANK0 ] unsigned char 
  2850 ;; Return value:  Size  Location     Type
  2851 ;;                  1    wreg      void 
  2852 ;; Registers used:
  2853 ;;		wreg
  2854 ;; Tracked objects:
  2855 ;;		On entry : 0/0
  2856 ;;		On exit  : 0/0
  2857 ;;		Unchanged: 0/0
  2858 ;; Data sizes:     COMMON   BANK0   BANK1
  2859 ;;      Params:         0       0       0
  2860 ;;      Locals:         0       1       0
  2861 ;;      Temps:          0       2       0
  2862 ;;      Totals:         0       3       0
  2863 ;;Total ram usage:        3 bytes
  2864 ;; Hardware stack levels used: 1
  2865 ;; Hardware stack levels required when called: 3
  2866 ;; This function calls:
  2867 ;;		Nothing
  2868 ;; This function is called by:
  2869 ;;		_LCD_init
  2870 ;;		_LCD_clear
  2871 ;;		_LCD_setCursor
  2872 ;; This function uses a non-reentrant model
  2873 ;;
  2874                           
  2875     0704                     _LCD_command:	
  2876                           ;psect for function _LCD_command
  2877                           
  2878                           
  2879                           ;incstack = 0
  2880                           ; Regs used in _LCD_command: [wreg]
  2881                           ;LCD_command@command stored from wreg
  2882     0704  1283               	bcf	3,5	;RP0=0, select bank0
  2883     0705  1303               	bcf	3,6	;RP1=0, select bank0
  2884     0706  00C0               	movwf	LCD_command@command
  2885     0707                     l1360:
  2886                           
  2887                           ;env_maestro.c: 209:     RA0 = 0;
  2888     0707  1005               	bcf	5,0	;volatile
  2889                           
  2890                           ;env_maestro.c: 210:     RA1 = 0;
  2891     0708  1085               	bcf	5,1	;volatile
  2892     0709                     l1362:
  2893                           
  2894                           ;env_maestro.c: 211:     PORTB = command;
  2895     0709  0840               	movf	LCD_command@command,w
  2896     070A  0086               	movwf	6	;volatile
  2897     070B                     l1364:
  2898                           
  2899                           ;env_maestro.c: 212:     RA2 = 1;
  2900     070B  1505               	bsf	5,2	;volatile
  2901                           
  2902                           ;env_maestro.c: 213:     _delay((unsigned long)((2)*(4000000/4000.0)));
  2903     070C  3003               	movlw	3
  2904     070D  1283               	bcf	3,5	;RP0=0, select bank0
  2905     070E  1303               	bcf	3,6	;RP1=0, select bank0
  2906     070F  00BF               	movwf	??_LCD_command+1
  2907     0710  3097               	movlw	151
  2908     0711  00BE               	movwf	??_LCD_command
  2909     0712                     u1887:
  2910     0712  0BBE               	decfsz	??_LCD_command,f
  2911     0713  2F12               	goto	u1887
  2912     0714  0BBF               	decfsz	??_LCD_command+1,f
  2913     0715  2F12               	goto	u1887
  2914     0716  0000               	nop
  2915     0717                     l1366:
  2916                           
  2917                           ;env_maestro.c: 214:     RA2 = 0;
  2918     0717  1283               	bcf	3,5	;RP0=0, select bank0
  2919     0718  1303               	bcf	3,6	;RP1=0, select bank0
  2920     0719  1105               	bcf	5,2	;volatile
  2921     071A                     l149:
  2922     071A  0008               	return
  2923     071B                     __end_of_LCD_command:
  2924                           
  2925                           	psect	text13
  2926     078A                     __ptext13:	
  2927 ;; *************** function _Keyboard_init *****************
  2928 ;; Defined at:
  2929 ;;		line 268 in file "env_maestro.c"
  2930 ;; Parameters:    Size  Location     Type
  2931 ;;		None
  2932 ;; Auto vars:     Size  Location     Type
  2933 ;;		None
  2934 ;; Return value:  Size  Location     Type
  2935 ;;                  1    wreg      void 
  2936 ;; Registers used:
  2937 ;;		wreg, status,2
  2938 ;; Tracked objects:
  2939 ;;		On entry : 0/0
  2940 ;;		On exit  : 0/0
  2941 ;;		Unchanged: 0/0
  2942 ;; Data sizes:     COMMON   BANK0   BANK1
  2943 ;;      Params:         0       0       0
  2944 ;;      Locals:         0       0       0
  2945 ;;      Temps:          0       0       0
  2946 ;;      Totals:         0       0       0
  2947 ;;Total ram usage:        0 bytes
  2948 ;; Hardware stack levels used: 1
  2949 ;; Hardware stack levels required when called: 3
  2950 ;; This function calls:
  2951 ;;		Nothing
  2952 ;; This function is called by:
  2953 ;;		_main
  2954 ;; This function uses a non-reentrant model
  2955 ;;
  2956                           
  2957     078A                     _Keyboard_init:	
  2958                           ;psect for function _Keyboard_init
  2959                           
  2960     078A                     l1482:	
  2961                           ;incstack = 0
  2962                           ; Regs used in _Keyboard_init: [wreg+status,2]
  2963                           
  2964                           
  2965                           ;env_maestro.c: 269:     TRISAbits.TRISA3 = 0;
  2966     078A  1683               	bsf	3,5	;RP0=1, select bank1
  2967     078B  1303               	bcf	3,6	;RP1=0, select bank1
  2968     078C  1185               	bcf	5,3	;volatile
  2969     078D                     l1484:
  2970                           
  2971                           ;env_maestro.c: 270:     TRISA = 0x00;
  2972     078D  0185               	clrf	5	;volatile
  2973     078E                     l1486:
  2974                           
  2975                           ;env_maestro.c: 271:     TRISB = 0x0F;
  2976     078E  300F               	movlw	15
  2977     078F  0086               	movwf	6	;volatile
  2978     0790                     l1488:
  2979                           
  2980                           ;env_maestro.c: 272:     PORTB = 0xF0;
  2981     0790  30F0               	movlw	240
  2982     0791  1283               	bcf	3,5	;RP0=0, select bank0
  2983     0792  1303               	bcf	3,6	;RP1=0, select bank0
  2984     0793  0086               	movwf	6	;volatile
  2985     0794                     l174:
  2986     0794  0008               	return
  2987     0795                     __end_of_Keyboard_init:
  2988                           
  2989                           	psect	text14
  2990     0749                     __ptext14:	
  2991 ;; *************** function _I2C_Slave_Init *****************
  2992 ;; Defined at:
  2993 ;;		line 368 in file "env_maestro.c"
  2994 ;; Parameters:    Size  Location     Type
  2995 ;;  address         1    wreg     unsigned char 
  2996 ;; Auto vars:     Size  Location     Type
  2997 ;;  address         1   30[BANK0 ] unsigned char 
  2998 ;; Return value:  Size  Location     Type
  2999 ;;                  1    wreg      void 
  3000 ;; Registers used:
  3001 ;;		wreg, status,2
  3002 ;; Tracked objects:
  3003 ;;		On entry : 0/0
  3004 ;;		On exit  : 0/0
  3005 ;;		Unchanged: 0/0
  3006 ;; Data sizes:     COMMON   BANK0   BANK1
  3007 ;;      Params:         0       0       0
  3008 ;;      Locals:         0       1       0
  3009 ;;      Temps:          0       0       0
  3010 ;;      Totals:         0       1       0
  3011 ;;Total ram usage:        1 bytes
  3012 ;; Hardware stack levels used: 1
  3013 ;; Hardware stack levels required when called: 3
  3014 ;; This function calls:
  3015 ;;		Nothing
  3016 ;; This function is called by:
  3017 ;;		_main
  3018 ;; This function uses a non-reentrant model
  3019 ;;
  3020                           
  3021     0749                     _I2C_Slave_Init:	
  3022                           ;psect for function _I2C_Slave_Init
  3023                           
  3024                           
  3025                           ;incstack = 0
  3026                           ; Regs used in _I2C_Slave_Init: [wreg+status,2]
  3027                           ;I2C_Slave_Init@address stored from wreg
  3028     0749  1283               	bcf	3,5	;RP0=0, select bank0
  3029     074A  1303               	bcf	3,6	;RP1=0, select bank0
  3030     074B  00BE               	movwf	I2C_Slave_Init@address
  3031     074C                     l1590:
  3032                           
  3033                           ;env_maestro.c: 369:     SSPADD = address;
  3034     074C  083E               	movf	I2C_Slave_Init@address,w
  3035     074D  1683               	bsf	3,5	;RP0=1, select bank1
  3036     074E  1303               	bcf	3,6	;RP1=0, select bank1
  3037     074F  0093               	movwf	19	;volatile
  3038                           
  3039                           ;env_maestro.c: 370:     SSPCON = 0x36;
  3040     0750  3036               	movlw	54
  3041     0751  1283               	bcf	3,5	;RP0=0, select bank0
  3042     0752  1303               	bcf	3,6	;RP1=0, select bank0
  3043     0753  0094               	movwf	20	;volatile
  3044     0754                     l1592:
  3045                           
  3046                           ;env_maestro.c: 371:     SSPIE = 1;
  3047     0754  1683               	bsf	3,5	;RP0=1, select bank1
  3048     0755  1303               	bcf	3,6	;RP1=0, select bank1
  3049     0756  158C               	bsf	12,3	;volatile
  3050     0757                     l1594:
  3051                           
  3052                           ;env_maestro.c: 372:     PEIE = 1;
  3053     0757  170B               	bsf	11,6	;volatile
  3054     0758                     l1596:
  3055                           
  3056                           ;env_maestro.c: 373:     GIE = 1;
  3057     0758  178B               	bsf	11,7	;volatile
  3058     0759                     l1598:
  3059                           
  3060                           ;env_maestro.c: 374:     SSPSTAT = 0x00;
  3061     0759  0194               	clrf	20	;volatile
  3062     075A                     l1600:
  3063                           
  3064                           ;env_maestro.c: 375:     TRISC3 = 1;
  3065     075A  1587               	bsf	7,3	;volatile
  3066     075B                     l1602:
  3067                           
  3068                           ;env_maestro.c: 376:     TRISC4 = 1;
  3069     075B  1607               	bsf	7,4	;volatile
  3070     075C                     l217:
  3071     075C  0008               	return
  3072     075D                     __end_of_I2C_Slave_Init:
  3073                           
  3074                           	psect	text15
  3075     07B1                     __ptext15:	
  3076 ;; *************** function _I2C_Master_Write *****************
  3077 ;; Defined at:
  3078 ;;		line 344 in file "env_maestro.c"
  3079 ;; Parameters:    Size  Location     Type
  3080 ;;  d               2   30[BANK0 ] unsigned int 
  3081 ;; Auto vars:     Size  Location     Type
  3082 ;;		None
  3083 ;; Return value:  Size  Location     Type
  3084 ;;                  1    wreg      void 
  3085 ;; Registers used:
  3086 ;;		wreg, status,2, status,0, pclath, cstack
  3087 ;; Tracked objects:
  3088 ;;		On entry : 0/0
  3089 ;;		On exit  : 0/0
  3090 ;;		Unchanged: 0/0
  3091 ;; Data sizes:     COMMON   BANK0   BANK1
  3092 ;;      Params:         0       2       0
  3093 ;;      Locals:         0       0       0
  3094 ;;      Temps:          0       0       0
  3095 ;;      Totals:         0       2       0
  3096 ;;Total ram usage:        2 bytes
  3097 ;; Hardware stack levels used: 1
  3098 ;; Hardware stack levels required when called: 4
  3099 ;; This function calls:
  3100 ;;		_I2C_Master_Wait
  3101 ;; This function is called by:
  3102 ;;		_main
  3103 ;; This function uses a non-reentrant model
  3104 ;;
  3105                           
  3106     07B1                     _I2C_Master_Write:	
  3107                           ;psect for function _I2C_Master_Write
  3108                           
  3109     07B1                     l1550:	
  3110                           ;incstack = 0
  3111                           ; Regs used in _I2C_Master_Write: [wreg+status,2+status,0+pclath+cstack]
  3112                           
  3113                           
  3114                           ;env_maestro.c: 345:     I2C_Master_Wait();
  3115     07B1  118A  277D  118A   	fcall	_I2C_Master_Wait
  3116     07B4                     l1552:
  3117                           
  3118                           ;env_maestro.c: 346:     SSPBUF = d;
  3119     07B4  1283               	bcf	3,5	;RP0=0, select bank0
  3120     07B5  1303               	bcf	3,6	;RP1=0, select bank0
  3121     07B6  083E               	movf	I2C_Master_Write@d,w
  3122     07B7  0093               	movwf	19	;volatile
  3123     07B8                     l209:
  3124     07B8  0008               	return
  3125     07B9                     __end_of_I2C_Master_Write:
  3126                           
  3127                           	psect	text16
  3128     07B9                     __ptext16:	
  3129 ;; *************** function _I2C_Master_Stop *****************
  3130 ;; Defined at:
  3131 ;;		line 339 in file "env_maestro.c"
  3132 ;; Parameters:    Size  Location     Type
  3133 ;;		None
  3134 ;; Auto vars:     Size  Location     Type
  3135 ;;		None
  3136 ;; Return value:  Size  Location     Type
  3137 ;;                  1    wreg      void 
  3138 ;; Registers used:
  3139 ;;		wreg, status,2, status,0, pclath, cstack
  3140 ;; Tracked objects:
  3141 ;;		On entry : 0/0
  3142 ;;		On exit  : 0/0
  3143 ;;		Unchanged: 0/0
  3144 ;; Data sizes:     COMMON   BANK0   BANK1
  3145 ;;      Params:         0       0       0
  3146 ;;      Locals:         0       0       0
  3147 ;;      Temps:          0       0       0
  3148 ;;      Totals:         0       0       0
  3149 ;;Total ram usage:        0 bytes
  3150 ;; Hardware stack levels used: 1
  3151 ;; Hardware stack levels required when called: 4
  3152 ;; This function calls:
  3153 ;;		_I2C_Master_Wait
  3154 ;; This function is called by:
  3155 ;;		_main
  3156 ;; This function uses a non-reentrant model
  3157 ;;
  3158                           
  3159     07B9                     _I2C_Master_Stop:	
  3160                           ;psect for function _I2C_Master_Stop
  3161                           
  3162     07B9                     l1554:	
  3163                           ;incstack = 0
  3164                           ; Regs used in _I2C_Master_Stop: [wreg+status,2+status,0+pclath+cstack]
  3165                           
  3166                           
  3167                           ;env_maestro.c: 340:     I2C_Master_Wait();
  3168     07B9  118A  277D  118A   	fcall	_I2C_Master_Wait
  3169     07BC                     l1556:
  3170                           
  3171                           ;env_maestro.c: 341:     PEN = 1;
  3172     07BC  1683               	bsf	3,5	;RP0=1, select bank1
  3173     07BD  1303               	bcf	3,6	;RP1=0, select bank1
  3174     07BE  1511               	bsf	17,2	;volatile
  3175     07BF                     l206:
  3176     07BF  0008               	return
  3177     07C0                     __end_of_I2C_Master_Stop:
  3178                           
  3179                           	psect	text17
  3180     07C0                     __ptext17:	
  3181 ;; *************** function _I2C_Master_Start *****************
  3182 ;; Defined at:
  3183 ;;		line 334 in file "env_maestro.c"
  3184 ;; Parameters:    Size  Location     Type
  3185 ;;		None
  3186 ;; Auto vars:     Size  Location     Type
  3187 ;;		None
  3188 ;; Return value:  Size  Location     Type
  3189 ;;                  1    wreg      void 
  3190 ;; Registers used:
  3191 ;;		wreg, status,2, status,0, pclath, cstack
  3192 ;; Tracked objects:
  3193 ;;		On entry : 0/0
  3194 ;;		On exit  : 0/0
  3195 ;;		Unchanged: 0/0
  3196 ;; Data sizes:     COMMON   BANK0   BANK1
  3197 ;;      Params:         0       0       0
  3198 ;;      Locals:         0       0       0
  3199 ;;      Temps:          0       0       0
  3200 ;;      Totals:         0       0       0
  3201 ;;Total ram usage:        0 bytes
  3202 ;; Hardware stack levels used: 1
  3203 ;; Hardware stack levels required when called: 4
  3204 ;; This function calls:
  3205 ;;		_I2C_Master_Wait
  3206 ;; This function is called by:
  3207 ;;		_main
  3208 ;; This function uses a non-reentrant model
  3209 ;;
  3210                           
  3211     07C0                     _I2C_Master_Start:	
  3212                           ;psect for function _I2C_Master_Start
  3213                           
  3214     07C0                     l1546:	
  3215                           ;incstack = 0
  3216                           ; Regs used in _I2C_Master_Start: [wreg+status,2+status,0+pclath+cstack]
  3217                           
  3218                           
  3219                           ;env_maestro.c: 335:     I2C_Master_Wait();
  3220     07C0  118A  277D  118A   	fcall	_I2C_Master_Wait
  3221     07C3                     l1548:
  3222                           
  3223                           ;env_maestro.c: 336:     SEN = 1;
  3224     07C3  1683               	bsf	3,5	;RP0=1, select bank1
  3225     07C4  1303               	bcf	3,6	;RP1=0, select bank1
  3226     07C5  1411               	bsf	17,0	;volatile
  3227     07C6                     l203:
  3228     07C6  0008               	return
  3229     07C7                     __end_of_I2C_Master_Start:
  3230                           
  3231                           	psect	text18
  3232     077D                     __ptext18:	
  3233 ;; *************** function _I2C_Master_Wait *****************
  3234 ;; Defined at:
  3235 ;;		line 330 in file "env_maestro.c"
  3236 ;; Parameters:    Size  Location     Type
  3237 ;;		None
  3238 ;; Auto vars:     Size  Location     Type
  3239 ;;		None
  3240 ;; Return value:  Size  Location     Type
  3241 ;;                  1    wreg      void 
  3242 ;; Registers used:
  3243 ;;		wreg, status,2
  3244 ;; Tracked objects:
  3245 ;;		On entry : 0/0
  3246 ;;		On exit  : 0/0
  3247 ;;		Unchanged: 0/0
  3248 ;; Data sizes:     COMMON   BANK0   BANK1
  3249 ;;      Params:         0       0       0
  3250 ;;      Locals:         0       0       0
  3251 ;;      Temps:          0       0       0
  3252 ;;      Totals:         0       0       0
  3253 ;;Total ram usage:        0 bytes
  3254 ;; Hardware stack levels used: 1
  3255 ;; Hardware stack levels required when called: 3
  3256 ;; This function calls:
  3257 ;;		Nothing
  3258 ;; This function is called by:
  3259 ;;		_I2C_Master_Start
  3260 ;;		_I2C_Master_Stop
  3261 ;;		_I2C_Master_Write
  3262 ;;		_I2C_Master_Read
  3263 ;; This function uses a non-reentrant model
  3264 ;;
  3265                           
  3266     077D                     _I2C_Master_Wait:	
  3267                           ;psect for function _I2C_Master_Wait
  3268                           
  3269     077D                     l1376:	
  3270                           ;incstack = 0
  3271                           ; Regs used in _I2C_Master_Wait: [wreg+status,2]
  3272                           
  3273     077D                     l1378:	
  3274                           ;env_maestro.c: 331:     while ((SSPCON2 & 0x1F) || (SSPSTAT & 0x04));
  3275                           
  3276     077D  1683               	bsf	3,5	;RP0=1, select bank1
  3277     077E  1303               	bcf	3,6	;RP1=0, select bank1
  3278     077F  0811               	movf	17,w	;volatile
  3279     0780  391F               	andlw	31
  3280     0781  1D03               	btfss	3,2
  3281     0782  2F84               	goto	u761
  3282     0783  2F85               	goto	u760
  3283     0784                     u761:
  3284     0784  2F7D               	goto	l1378
  3285     0785                     u760:
  3286     0785                     l1380:
  3287     0785  1914               	btfsc	20,2	;volatile
  3288     0786  2F88               	goto	u771
  3289     0787  2F89               	goto	u770
  3290     0788                     u771:
  3291     0788  2F7D               	goto	l1378
  3292     0789                     u770:
  3293     0789                     l200:
  3294     0789  0008               	return
  3295     078A                     __end_of_I2C_Master_Wait:
  3296                           
  3297                           	psect	text19
  3298     05B6                     __ptext19:	
  3299 ;; *************** function _I2C_Master_Init *****************
  3300 ;; Defined at:
  3301 ;;		line 321 in file "env_maestro.c"
  3302 ;; Parameters:    Size  Location     Type
  3303 ;;  c               4    0[BANK1 ] const unsigned long 
  3304 ;; Auto vars:     Size  Location     Type
  3305 ;;		None
  3306 ;; Return value:  Size  Location     Type
  3307 ;;                  1    wreg      void 
  3308 ;; Registers used:
  3309 ;;		wreg, status,2, status,0, btemp+1, pclath, cstack
  3310 ;; Tracked objects:
  3311 ;;		On entry : 0/0
  3312 ;;		On exit  : 0/0
  3313 ;;		Unchanged: 0/0
  3314 ;; Data sizes:     COMMON   BANK0   BANK1
  3315 ;;      Params:         0       0       4
  3316 ;;      Locals:         0       0       0
  3317 ;;      Temps:          0       0       4
  3318 ;;      Totals:         0       0       8
  3319 ;;Total ram usage:        8 bytes
  3320 ;; Hardware stack levels used: 1
  3321 ;; Hardware stack levels required when called: 4
  3322 ;; This function calls:
  3323 ;;		___lldiv
  3324 ;; This function is called by:
  3325 ;;		_main
  3326 ;; This function uses a non-reentrant model
  3327 ;;
  3328                           
  3329     05B6                     _I2C_Master_Init:	
  3330                           ;psect for function _I2C_Master_Init
  3331                           
  3332     05B6                     l1920:	
  3333                           ;incstack = 0
  3334                           ; Regs used in _I2C_Master_Init: [wreg+status,2+status,0+btemp+1+pclath+cstack]
  3335                           
  3336                           
  3337                           ;env_maestro.c: 322:     SSPCON = 0b00101000;
  3338     05B6  3028               	movlw	40
  3339     05B7  1283               	bcf	3,5	;RP0=0, select bank0
  3340     05B8  1303               	bcf	3,6	;RP1=0, select bank0
  3341     05B9  0094               	movwf	20	;volatile
  3342     05BA                     l1922:
  3343                           
  3344                           ;env_maestro.c: 323:    SSPADD = (unsigned char)((4000000 / (4 * c)) - 1);
  3345     05BA  1683               	bsf	3,5	;RP0=1, select bank1
  3346     05BB  1303               	bcf	3,6	;RP1=0, select bank1
  3347     05BC  083A               	movf	I2C_Master_Init@c^(0+128),w
  3348     05BD  00BE               	movwf	??_I2C_Master_Init^(0+128)
  3349     05BE  083B               	movf	(I2C_Master_Init@c+1)^(0+128),w
  3350     05BF  00BF               	movwf	(??_I2C_Master_Init^(0+128)+1)
  3351     05C0  083C               	movf	(I2C_Master_Init@c+2)^(0+128),w
  3352     05C1  00C0               	movwf	(??_I2C_Master_Init^(0+128)+2)
  3353     05C2  083D               	movf	(I2C_Master_Init@c+3)^(0+128),w
  3354     05C3  00C1               	movwf	(??_I2C_Master_Init^(0+128)+3)
  3355     05C4  3002               	movlw	2
  3356     05C5                     u1515:
  3357     05C5  1003               	clrc
  3358     05C6  0DBE               	rlf	??_I2C_Master_Init^(0+128),f
  3359     05C7  0DBF               	rlf	(??_I2C_Master_Init^(0+128)+1),f
  3360     05C8  0DC0               	rlf	(??_I2C_Master_Init^(0+128)+2),f
  3361     05C9  0DC1               	rlf	(??_I2C_Master_Init^(0+128)+3),f
  3362     05CA                     u1510:
  3363     05CA  3EFF               	addlw	-1
  3364     05CB  1D03               	skipz
  3365     05CC  2DC5               	goto	u1515
  3366     05CD  0841               	movf	(??_I2C_Master_Init+3)^(0+128),w
  3367     05CE  1283               	bcf	3,5	;RP0=0, select bank0
  3368     05CF  1303               	bcf	3,6	;RP1=0, select bank0
  3369     05D0  00C1               	movwf	___lldiv@divisor+3
  3370     05D1  1683               	bsf	3,5	;RP0=1, select bank1
  3371     05D2  1303               	bcf	3,6	;RP1=0, select bank1
  3372     05D3  0840               	movf	(??_I2C_Master_Init+2)^(0+128),w
  3373     05D4  1283               	bcf	3,5	;RP0=0, select bank0
  3374     05D5  1303               	bcf	3,6	;RP1=0, select bank0
  3375     05D6  00C0               	movwf	___lldiv@divisor+2
  3376     05D7  1683               	bsf	3,5	;RP0=1, select bank1
  3377     05D8  1303               	bcf	3,6	;RP1=0, select bank1
  3378     05D9  083F               	movf	(??_I2C_Master_Init+1)^(0+128),w
  3379     05DA  1283               	bcf	3,5	;RP0=0, select bank0
  3380     05DB  1303               	bcf	3,6	;RP1=0, select bank0
  3381     05DC  00BF               	movwf	___lldiv@divisor+1
  3382     05DD  1683               	bsf	3,5	;RP0=1, select bank1
  3383     05DE  1303               	bcf	3,6	;RP1=0, select bank1
  3384     05DF  083E               	movf	??_I2C_Master_Init^(0+128),w
  3385     05E0  1283               	bcf	3,5	;RP0=0, select bank0
  3386     05E1  1303               	bcf	3,6	;RP1=0, select bank0
  3387     05E2  00BE               	movwf	___lldiv@divisor
  3388     05E3  3000               	movlw	0
  3389     05E4  00C5               	movwf	___lldiv@dividend+3
  3390     05E5  303D               	movlw	61
  3391     05E6  00C4               	movwf	___lldiv@dividend+2
  3392     05E7  3009               	movlw	9
  3393     05E8  00C3               	movwf	___lldiv@dividend+1
  3394     05E9  3000               	movlw	0
  3395     05EA  00C2               	movwf	___lldiv@dividend
  3396     05EB  118A  2453  118A   	fcall	___lldiv
  3397     05EE  1283               	bcf	3,5	;RP0=0, select bank0
  3398     05EF  1303               	bcf	3,6	;RP1=0, select bank0
  3399     05F0  083E               	movf	?___lldiv,w
  3400     05F1  3EFF               	addlw	255
  3401     05F2  1683               	bsf	3,5	;RP0=1, select bank1
  3402     05F3  1303               	bcf	3,6	;RP1=0, select bank1
  3403     05F4  0093               	movwf	19	;volatile
  3404     05F5                     l1924:
  3405                           
  3406                           ;env_maestro.c: 325:     SSPSTAT = 0x00;
  3407     05F5  0194               	clrf	20	;volatile
  3408     05F6                     l1926:
  3409                           
  3410                           ;env_maestro.c: 326:     TRISC3 = 1;
  3411     05F6  1587               	bsf	7,3	;volatile
  3412     05F7                     l1928:
  3413                           
  3414                           ;env_maestro.c: 327:     TRISC4 = 1;
  3415     05F7  1607               	bsf	7,4	;volatile
  3416     05F8                     l194:
  3417     05F8  0008               	return
  3418     05F9                     __end_of_I2C_Master_Init:
  3419                           
  3420                           	psect	text20
  3421     0453                     __ptext20:	
  3422 ;; *************** function ___lldiv *****************
  3423 ;; Defined at:
  3424 ;;		line 5 in file "C:\Program Files\Microchip\xc8\v2.46\pic\sources\c99\common\__lldiv.c"
  3425 ;; Parameters:    Size  Location     Type
  3426 ;;  divisor         4   30[BANK0 ] unsigned long 
  3427 ;;  dividend        4   34[BANK0 ] unsigned long 
  3428 ;; Auto vars:     Size  Location     Type
  3429 ;;  quotient        4   39[BANK0 ] unsigned long 
  3430 ;;  counter         1   43[BANK0 ] unsigned char 
  3431 ;; Return value:  Size  Location     Type
  3432 ;;                  4   30[BANK0 ] unsigned long 
  3433 ;; Registers used:
  3434 ;;		wreg, status,2, status,0, btemp+1
  3435 ;; Tracked objects:
  3436 ;;		On entry : 0/0
  3437 ;;		On exit  : 0/0
  3438 ;;		Unchanged: 0/0
  3439 ;; Data sizes:     COMMON   BANK0   BANK1
  3440 ;;      Params:         0       8       0
  3441 ;;      Locals:         0       5       0
  3442 ;;      Temps:          0       1       0
  3443 ;;      Totals:         0      14       0
  3444 ;;Total ram usage:       14 bytes
  3445 ;; Hardware stack levels used: 1
  3446 ;; Hardware stack levels required when called: 3
  3447 ;; This function calls:
  3448 ;;		Nothing
  3449 ;; This function is called by:
  3450 ;;		_I2C_Master_Init
  3451 ;; This function uses a non-reentrant model
  3452 ;;
  3453                           
  3454     0453                     ___lldiv:	
  3455                           ;psect for function ___lldiv
  3456                           
  3457     0453                     l1396:	
  3458                           ;incstack = 0
  3459                           ; Regs used in ___lldiv: [wreg+status,2+status,0+btemp+1]
  3460                           
  3461     0453  3000               	movlw	0
  3462     0454  1283               	bcf	3,5	;RP0=0, select bank0
  3463     0455  1303               	bcf	3,6	;RP1=0, select bank0
  3464     0456  00CA               	movwf	___lldiv@quotient+3
  3465     0457  3000               	movlw	0
  3466     0458  00C9               	movwf	___lldiv@quotient+2
  3467     0459  3000               	movlw	0
  3468     045A  00C8               	movwf	___lldiv@quotient+1
  3469     045B  3000               	movlw	0
  3470     045C  00C7               	movwf	___lldiv@quotient
  3471     045D  0841               	movf	___lldiv@divisor+3,w
  3472     045E  0440               	iorwf	___lldiv@divisor+2,w
  3473     045F  043F               	iorwf	___lldiv@divisor+1,w
  3474     0460  043E               	iorwf	___lldiv@divisor,w
  3475     0461  1903               	skipnz
  3476     0462  2C64               	goto	u821
  3477     0463  2C65               	goto	u820
  3478     0464                     u821:
  3479     0464  2CB2               	goto	l1418
  3480     0465                     u820:
  3481     0465                     l1398:
  3482     0465  01CB               	clrf	___lldiv@counter
  3483     0466  0ACB               	incf	___lldiv@counter,f
  3484     0467  2C75               	goto	l1404
  3485     0468                     l1400:
  3486     0468  3001               	movlw	1
  3487     0469  00C6               	movwf	??___lldiv
  3488     046A                     u835:
  3489     046A  1003               	clrc
  3490     046B  0DBE               	rlf	___lldiv@divisor,f
  3491     046C  0DBF               	rlf	___lldiv@divisor+1,f
  3492     046D  0DC0               	rlf	___lldiv@divisor+2,f
  3493     046E  0DC1               	rlf	___lldiv@divisor+3,f
  3494     046F  0BC6               	decfsz	??___lldiv,f
  3495     0470  2C6A               	goto	u835
  3496     0471                     l1402:
  3497     0471  3001               	movlw	1
  3498     0472  00FF               	movwf	btemp+1
  3499     0473  087F               	movf	btemp+1,w
  3500     0474  07CB               	addwf	___lldiv@counter,f
  3501     0475                     l1404:
  3502     0475  1FC1               	btfss	___lldiv@divisor+3,7
  3503     0476  2C78               	goto	u841
  3504     0477  2C79               	goto	u840
  3505     0478                     u841:
  3506     0478  2C68               	goto	l1400
  3507     0479                     u840:
  3508     0479                     l1406:
  3509     0479  3001               	movlw	1
  3510     047A  00C6               	movwf	??___lldiv
  3511     047B                     u855:
  3512     047B  1003               	clrc
  3513     047C  0DC7               	rlf	___lldiv@quotient,f
  3514     047D  0DC8               	rlf	___lldiv@quotient+1,f
  3515     047E  0DC9               	rlf	___lldiv@quotient+2,f
  3516     047F  0DCA               	rlf	___lldiv@quotient+3,f
  3517     0480  0BC6               	decfsz	??___lldiv,f
  3518     0481  2C7B               	goto	u855
  3519     0482                     l1408:
  3520     0482  0841               	movf	___lldiv@divisor+3,w
  3521     0483  0245               	subwf	___lldiv@dividend+3,w
  3522     0484  1D03               	skipz
  3523     0485  2C90               	goto	u865
  3524     0486  0840               	movf	___lldiv@divisor+2,w
  3525     0487  0244               	subwf	___lldiv@dividend+2,w
  3526     0488  1D03               	skipz
  3527     0489  2C90               	goto	u865
  3528     048A  083F               	movf	___lldiv@divisor+1,w
  3529     048B  0243               	subwf	___lldiv@dividend+1,w
  3530     048C  1D03               	skipz
  3531     048D  2C90               	goto	u865
  3532     048E  083E               	movf	___lldiv@divisor,w
  3533     048F  0242               	subwf	___lldiv@dividend,w
  3534     0490                     u865:
  3535     0490  1C03               	skipc
  3536     0491  2C93               	goto	u861
  3537     0492  2C94               	goto	u860
  3538     0493                     u861:
  3539     0493  2CA3               	goto	l1414
  3540     0494                     u860:
  3541     0494                     l1410:
  3542     0494  083E               	movf	___lldiv@divisor,w
  3543     0495  02C2               	subwf	___lldiv@dividend,f
  3544     0496  083F               	movf	___lldiv@divisor+1,w
  3545     0497  1C03               	skipc
  3546     0498  0F3F               	incfsz	___lldiv@divisor+1,w
  3547     0499  02C3               	subwf	___lldiv@dividend+1,f
  3548     049A  0840               	movf	___lldiv@divisor+2,w
  3549     049B  1C03               	skipc
  3550     049C  0F40               	incfsz	___lldiv@divisor+2,w
  3551     049D  02C4               	subwf	___lldiv@dividend+2,f
  3552     049E  0841               	movf	___lldiv@divisor+3,w
  3553     049F  1C03               	skipc
  3554     04A0  0F41               	incfsz	___lldiv@divisor+3,w
  3555     04A1  02C5               	subwf	___lldiv@dividend+3,f
  3556     04A2                     l1412:
  3557     04A2  1447               	bsf	___lldiv@quotient,0
  3558     04A3                     l1414:
  3559     04A3  3001               	movlw	1
  3560     04A4                     u875:
  3561     04A4  1003               	clrc
  3562     04A5  0CC1               	rrf	___lldiv@divisor+3,f
  3563     04A6  0CC0               	rrf	___lldiv@divisor+2,f
  3564     04A7  0CBF               	rrf	___lldiv@divisor+1,f
  3565     04A8  0CBE               	rrf	___lldiv@divisor,f
  3566     04A9  3EFF               	addlw	-1
  3567     04AA  1D03               	skipz
  3568     04AB  2CA4               	goto	u875
  3569     04AC                     l1416:
  3570     04AC  3001               	movlw	1
  3571     04AD  02CB               	subwf	___lldiv@counter,f
  3572     04AE  1D03               	btfss	3,2
  3573     04AF  2CB1               	goto	u881
  3574     04B0  2CB2               	goto	u880
  3575     04B1                     u881:
  3576     04B1  2C79               	goto	l1406
  3577     04B2                     u880:
  3578     04B2                     l1418:
  3579     04B2  084A               	movf	___lldiv@quotient+3,w
  3580     04B3  00C1               	movwf	?___lldiv+3
  3581     04B4  0849               	movf	___lldiv@quotient+2,w
  3582     04B5  00C0               	movwf	?___lldiv+2
  3583     04B6  0848               	movf	___lldiv@quotient+1,w
  3584     04B7  00BF               	movwf	?___lldiv+1
  3585     04B8  0847               	movf	___lldiv@quotient,w
  3586     04B9  00BE               	movwf	?___lldiv
  3587     04BA                     l356:
  3588     04BA  0008               	return
  3589     04BB                     __end_of___lldiv:
  3590                           
  3591                           	psect	text21
  3592     0286                     __ptext21:	
  3593 ;; *************** function _ISR *****************
  3594 ;; Defined at:
  3595 ;;		line 379 in file "env_maestro.c"
  3596 ;; Parameters:    Size  Location     Type
  3597 ;;		None
  3598 ;; Auto vars:     Size  Location     Type
  3599 ;;  temp            1   29[BANK0 ] unsigned char 
  3600 ;; Return value:  Size  Location     Type
  3601 ;;                  1    wreg      void 
  3602 ;; Registers used:
  3603 ;;		wreg, fsr0l, fsr0h, status,2, status,0, btemp+1, pclath, cstack
  3604 ;; Tracked objects:
  3605 ;;		On entry : 0/0
  3606 ;;		On exit  : 0/0
  3607 ;;		Unchanged: 0/0
  3608 ;; Data sizes:     COMMON   BANK0   BANK1
  3609 ;;      Params:         0       0       0
  3610 ;;      Locals:         0       1       0
  3611 ;;      Temps:          0       7       0
  3612 ;;      Totals:         0       8       0
  3613 ;;Total ram usage:        8 bytes
  3614 ;; Hardware stack levels used: 1
  3615 ;; Hardware stack levels required when called: 2
  3616 ;; This function calls:
  3617 ;;		i1_I2C_Master_Init
  3618 ;;		i1_Keyboard_init
  3619 ;;		i1_LCD_clear
  3620 ;;		i1_LCD_print
  3621 ;;		i1_LCD_setCursor
  3622 ;;		i1_Prepare_LCD_Pins
  3623 ;; This function is called by:
  3624 ;;		Interrupt level 1
  3625 ;; This function uses a non-reentrant model
  3626 ;;
  3627                           
  3628     0286                     _ISR:	
  3629                           ;psect for function _ISR
  3630                           
  3631     0286                     i1l1864:
  3632                           
  3633                           ;env_maestro.c: 380:     static char receiveBuffer[15 + 1];;env_maestro.c: 381:     stat
      +                          ic int index = 0;;env_maestro.c: 383:     if (SSPIF) {
  3634     0286  1D8C               	btfss	12,3	;volatile
  3635     0287  2A89               	goto	u143_21
  3636     0288  2A8A               	goto	u143_20
  3637     0289                     u143_21:
  3638     0289  2B36               	goto	i1l234
  3639     028A                     u143_20:
  3640     028A                     i1l1866:
  3641                           
  3642                           ;env_maestro.c: 384:         char temp = SSPBUF;
  3643     028A  0813               	movf	19,w	;volatile
  3644     028B  00BD               	movwf	ISR@temp
  3645     028C                     i1l1868:
  3646                           
  3647                           ;env_maestro.c: 385:         SSPCONbits.CKP = 1;
  3648     028C  1614               	bsf	20,4	;volatile
  3649     028D                     i1l1870:
  3650                           
  3651                           ;env_maestro.c: 387:         if (!SSPSTATbits.D_nA && !SSPSTATbits.R_nW) {
  3652     028D  1683               	bsf	3,5	;RP0=1, select bank1
  3653     028E  1303               	bcf	3,6	;RP1=0, select bank1
  3654     028F  1A94               	btfsc	20,5	;volatile
  3655     0290  2A92               	goto	u144_21
  3656     0291  2A93               	goto	u144_20
  3657     0292                     u144_21:
  3658     0292  2A9C               	goto	i1l227
  3659     0293                     u144_20:
  3660     0293                     i1l1872:
  3661     0293  1914               	btfsc	20,2	;volatile
  3662     0294  2A96               	goto	u145_21
  3663     0295  2A97               	goto	u145_20
  3664     0296                     u145_21:
  3665     0296  2A9C               	goto	i1l227
  3666     0297                     u145_20:
  3667     0297                     i1l1874:
  3668                           
  3669                           ;env_maestro.c: 388:             index = 0;
  3670     0297  1283               	bcf	3,5	;RP0=0, select bank0
  3671     0298  1303               	bcf	3,6	;RP1=0, select bank0
  3672     0299  01CC               	clrf	ISR@index
  3673     029A  01CD               	clrf	ISR@index+1
  3674                           
  3675                           ;env_maestro.c: 389:         } else if (SSPSTATbits.D_nA && !SSPSTATbits.R_nW) {
  3676     029B  2B33               	goto	i1l1918
  3677     029C                     i1l227:
  3678     029C  1E94               	btfss	20,5	;volatile
  3679     029D  2A9F               	goto	u146_21
  3680     029E  2AA0               	goto	u146_20
  3681     029F                     u146_21:
  3682     029F  2B33               	goto	i1l1918
  3683     02A0                     u146_20:
  3684     02A0                     i1l1876:
  3685     02A0  1914               	btfsc	20,2	;volatile
  3686     02A1  2AA3               	goto	u147_21
  3687     02A2  2AA4               	goto	u147_20
  3688     02A3                     u147_21:
  3689     02A3  2B33               	goto	i1l1918
  3690     02A4                     u147_20:
  3691     02A4                     i1l1878:
  3692                           
  3693                           ;env_maestro.c: 390:             if (index < 15) {
  3694     02A4  1283               	bcf	3,5	;RP0=0, select bank0
  3695     02A5  1303               	bcf	3,6	;RP1=0, select bank0
  3696     02A6  084D               	movf	ISR@index+1,w
  3697     02A7  3A80               	xorlw	128
  3698     02A8  00FF               	movwf	btemp+1
  3699     02A9  3080               	movlw	128
  3700     02AA  027F               	subwf	btemp+1,w
  3701     02AB  1D03               	skipz
  3702     02AC  2AAF               	goto	u148_25
  3703     02AD  300F               	movlw	15
  3704     02AE  024C               	subwf	ISR@index,w
  3705     02AF                     u148_25:
  3706     02AF  1803               	skipnc
  3707     02B0  2AB2               	goto	u148_21
  3708     02B1  2AB3               	goto	u148_20
  3709     02B2                     u148_21:
  3710     02B2  2B33               	goto	i1l1918
  3711     02B3                     u148_20:
  3712     02B3                     i1l1880:
  3713                           
  3714                           ;env_maestro.c: 391:                 receiveBuffer[index++] = temp;
  3715     02B3  1283               	bcf	3,5	;RP0=0, select bank0
  3716     02B4  1303               	bcf	3,6	;RP1=0, select bank0
  3717     02B5  084C               	movf	ISR@index,w
  3718     02B6  3E4E               	addlw	(low (ISR@receiveBuffer| 0))& (0+255)
  3719     02B7  0084               	movwf	4
  3720     02B8  083D               	movf	ISR@temp,w
  3721     02B9  1383               	bcf	3,7	;select IRP bank0
  3722     02BA  0080               	movwf	0
  3723     02BB                     i1l1882:
  3724     02BB  3001               	movlw	1
  3725     02BC  07CC               	addwf	ISR@index,f
  3726     02BD  1803               	skipnc
  3727     02BE  0ACD               	incf	ISR@index+1,f
  3728     02BF  3000               	movlw	0
  3729     02C0  07CD               	addwf	ISR@index+1,f
  3730     02C1                     i1l1884:
  3731                           
  3732                           ;env_maestro.c: 392:                 if (temp == '\0' || index == 15) {
  3733     02C1  083D               	movf	ISR@temp,w
  3734     02C2  1903               	btfsc	3,2
  3735     02C3  2AC5               	goto	u149_21
  3736     02C4  2AC6               	goto	u149_20
  3737     02C5                     u149_21:
  3738     02C5  2ACD               	goto	i1l1888
  3739     02C6                     u149_20:
  3740     02C6                     i1l1886:
  3741     02C6  300F               	movlw	15
  3742     02C7  064C               	xorwf	ISR@index,w
  3743     02C8  044D               	iorwf	ISR@index+1,w
  3744     02C9  1D03               	btfss	3,2
  3745     02CA  2ACC               	goto	u150_21
  3746     02CB  2ACD               	goto	u150_20
  3747     02CC                     u150_21:
  3748     02CC  2B33               	goto	i1l229
  3749     02CD                     u150_20:
  3750     02CD                     i1l1888:
  3751                           
  3752                           ;env_maestro.c: 393:                     receiveBuffer[index] = '\0';
  3753     02CD  084C               	movf	ISR@index,w
  3754     02CE  3E4E               	addlw	(low (ISR@receiveBuffer| 0))& (0+255)
  3755     02CF  0084               	movwf	4
  3756     02D0  0180               	clrf	0
  3757     02D1                     i1l1890:
  3758                           
  3759                           ;env_maestro.c: 394:                     Prepare_LCD_Pins();
  3760     02D1  118A  27CB  118A   	fcall	i1_Prepare_LCD_Pins
  3761     02D4                     i1l1892:
  3762                           
  3763                           ;env_maestro.c: 395:                     LCD_clear();
  3764     02D4  118A  276D  118A   	fcall	i1_LCD_clear
  3765     02D7                     i1l1894:
  3766                           
  3767                           ;env_maestro.c: 396:                     LCD_setCursor(1, 0);
  3768     02D7  1283               	bcf	3,5	;RP0=0, select bank0
  3769     02D8  1303               	bcf	3,6	;RP1=0, select bank0
  3770     02D9  01A3               	clrf	i1LCD_setCursor@column
  3771     02DA  3001               	movlw	1
  3772     02DB  118A  26D1  118A   	fcall	i1_LCD_setCursor
  3773     02DE                     i1l1896:
  3774                           
  3775                           ;env_maestro.c: 397:                     LCD_print(receiveBuffer);
  3776     02DE  304E               	movlw	(low (ISR@receiveBuffer| 0))& (0+255)
  3777     02DF  1283               	bcf	3,5	;RP0=0, select bank0
  3778     02E0  1303               	bcf	3,6	;RP1=0, select bank0
  3779     02E1  00A3               	movwf	i1LCD_print@string
  3780     02E2  3000               	movlw	0
  3781     02E3  00A4               	movwf	i1LCD_print@string+1
  3782     02E4  118A  2675  118A   	fcall	i1_LCD_print
  3783     02E7                     i1l1898:
  3784                           
  3785                           ;env_maestro.c: 398:                     _delay((unsigned long)((2000)*(4000000/4000.0))
      +                          );
  3786     02E7  300B               	movlw	11
  3787     02E8  1283               	bcf	3,5	;RP0=0, select bank0
  3788     02E9  1303               	bcf	3,6	;RP1=0, select bank0
  3789     02EA  00B8               	movwf	??_ISR+2
  3790     02EB  3026               	movlw	38
  3791     02EC  00B7               	movwf	??_ISR+1
  3792     02ED  305D               	movlw	93
  3793     02EE  00B6               	movwf	??_ISR
  3794     02EF                     u189_27:
  3795     02EF  0BB6               	decfsz	??_ISR,f
  3796     02F0  2AEF               	goto	u189_27
  3797     02F1  0BB7               	decfsz	??_ISR+1,f
  3798     02F2  2AEF               	goto	u189_27
  3799     02F3  0BB8               	decfsz	??_ISR+2,f
  3800     02F4  2AEF               	goto	u189_27
  3801     02F5  0000               	nop
  3802     02F6                     i1l1900:
  3803                           
  3804                           ;env_maestro.c: 399:                     LCD_clear();
  3805     02F6  118A  276D  118A   	fcall	i1_LCD_clear
  3806     02F9                     i1l1902:
  3807                           
  3808                           ;env_maestro.c: 400:                     LCD_print("Escriba Resp");
  3809     02F9  3022               	movlw	(low ((STR_3-__stringbase)| (0+32768)))& (0+255)
  3810     02FA  1283               	bcf	3,5	;RP0=0, select bank0
  3811     02FB  1303               	bcf	3,6	;RP1=0, select bank0
  3812     02FC  00A3               	movwf	i1LCD_print@string
  3813     02FD  3080               	movlw	128
  3814     02FE  00A4               	movwf	i1LCD_print@string+1
  3815     02FF  118A  2675  118A   	fcall	i1_LCD_print
  3816     0302                     i1l1904:
  3817                           
  3818                           ;env_maestro.c: 401:                     index = 0;
  3819     0302  1283               	bcf	3,5	;RP0=0, select bank0
  3820     0303  1303               	bcf	3,6	;RP1=0, select bank0
  3821     0304  01CC               	clrf	ISR@index
  3822     0305  01CD               	clrf	ISR@index+1
  3823     0306                     i1l1906:
  3824                           
  3825                           ;env_maestro.c: 402:                     _delay((unsigned long)((2000)*(4000000/4000.0))
      +                          );
  3826     0306  300B               	movlw	11
  3827     0307  1283               	bcf	3,5	;RP0=0, select bank0
  3828     0308  1303               	bcf	3,6	;RP1=0, select bank0
  3829     0309  00B8               	movwf	??_ISR+2
  3830     030A  3026               	movlw	38
  3831     030B  00B7               	movwf	??_ISR+1
  3832     030C  305D               	movlw	93
  3833     030D  00B6               	movwf	??_ISR
  3834     030E                     u190_27:
  3835     030E  0BB6               	decfsz	??_ISR,f
  3836     030F  2B0E               	goto	u190_27
  3837     0310  0BB7               	decfsz	??_ISR+1,f
  3838     0311  2B0E               	goto	u190_27
  3839     0312  0BB8               	decfsz	??_ISR+2,f
  3840     0313  2B0E               	goto	u190_27
  3841     0314  0000               	nop
  3842     0315                     i1l1908:
  3843                           
  3844                           ;env_maestro.c: 405:                     LCD_clear();
  3845     0315  118A  276D  118A   	fcall	i1_LCD_clear
  3846     0318                     i1l1910:
  3847                           
  3848                           ;env_maestro.c: 406:                     LCD_setCursor(1, 0);
  3849     0318  1283               	bcf	3,5	;RP0=0, select bank0
  3850     0319  1303               	bcf	3,6	;RP1=0, select bank0
  3851     031A  01A3               	clrf	i1LCD_setCursor@column
  3852     031B  3001               	movlw	1
  3853     031C  118A  26D1  118A   	fcall	i1_LCD_setCursor
  3854     031F                     i1l1912:
  3855                           
  3856                           ;env_maestro.c: 408:                     Keyboard_init();
  3857     031F  118A  2795  118A   	fcall	i1_Keyboard_init
  3858     0322                     i1l1914:
  3859                           
  3860                           ;env_maestro.c: 410:                 i2c_role = 0;
  3861     0322  1683               	bsf	3,5	;RP0=1, select bank1
  3862     0323  1303               	bcf	3,6	;RP1=0, select bank1
  3863     0324  01A4               	clrf	_i2c_role^(0+128)	;volatile
  3864     0325                     i1l1916:
  3865                           
  3866                           ;env_maestro.c: 411:                 I2C_Master_Init(100000);
  3867     0325  3000               	movlw	0
  3868     0326  1283               	bcf	3,5	;RP0=0, select bank0
  3869     0327  1303               	bcf	3,6	;RP1=0, select bank0
  3870     0328  00B1               	movwf	i1I2C_Master_Init@c+3
  3871     0329  3001               	movlw	1
  3872     032A  00B0               	movwf	i1I2C_Master_Init@c+2
  3873     032B  3086               	movlw	134
  3874     032C  00AF               	movwf	i1I2C_Master_Init@c+1
  3875     032D  30A0               	movlw	160
  3876     032E  00AE               	movwf	i1I2C_Master_Init@c
  3877     032F  118A  25F9  118A   	fcall	i1_I2C_Master_Init
  3878     0332  2B33               	goto	i1l1918
  3879     0333                     i1l229:	
  3880                           ;env_maestro.c: 414:         }
  3881                           
  3882     0333                     i1l1918:
  3883                           
  3884                           ;env_maestro.c: 415:         SSPIF = 0;
  3885     0333  1283               	bcf	3,5	;RP0=0, select bank0
  3886     0334  1303               	bcf	3,6	;RP1=0, select bank0
  3887     0335  118C               	bcf	12,3	;volatile
  3888     0336                     i1l234:
  3889     0336  083C               	movf	??_ISR+6,w
  3890     0337  083B               	movf	??_ISR+5,w
  3891     0338  008A               	movwf	10
  3892     0339  083A               	movf	??_ISR+4,w
  3893     033A  0084               	movwf	4
  3894     033B  0E39               	swapf	??_ISR+3,w
  3895     033C  0083               	movwf	3
  3896     033D  0EFE               	swapf	btemp,f
  3897     033E  0E7E               	swapf	btemp,w
  3898     033F  0009               	retfie
  3899     0340                     __end_of_ISR:
  3900                           
  3901                           	psect	intentry
  3902     0004                     __pintentry:	
  3903                           ;incstack = 0
  3904                           ; Regs used in _ISR: [wreg-fsr0h+status,2+status,0+btemp+1+pclath+cstack]
  3905                           
  3906     0004                     interrupt_function:
  3907     007E                     saved_w	set	btemp
  3908     0004  00FE               	movwf	btemp
  3909     0005  0E03               	swapf	3,w
  3910     0006  1283               	bcf	3,5	;RP0=0, select bank0
  3911     0007  1303               	bcf	3,6	;RP1=0, select bank0
  3912     0008  00B9               	movwf	??_ISR+3
  3913     0009  0804               	movf	4,w
  3914     000A  00BA               	movwf	??_ISR+4
  3915     000B  080A               	movf	10,w
  3916     000C  00BB               	movwf	??_ISR+5
  3917     000D  087F               	movf	btemp+1,w
  3918     000E  00BC               	movwf	??_ISR+6
  3919     000F  118A  2A86         	ljmp	_ISR
  3920                           
  3921                           	psect	text22
  3922     07CB                     __ptext22:	
  3923 ;; *************** function i1_Prepare_LCD_Pins *****************
  3924 ;; Defined at:
  3925 ;;		line 309 in file "env_maestro.c"
  3926 ;; Parameters:    Size  Location     Type
  3927 ;;		None
  3928 ;; Auto vars:     Size  Location     Type
  3929 ;;		None
  3930 ;; Return value:  Size  Location     Type
  3931 ;;                  1    wreg      void 
  3932 ;; Registers used:
  3933 ;;		status,2
  3934 ;; Tracked objects:
  3935 ;;		On entry : 0/0
  3936 ;;		On exit  : 0/0
  3937 ;;		Unchanged: 0/0
  3938 ;; Data sizes:     COMMON   BANK0   BANK1
  3939 ;;      Params:         0       0       0
  3940 ;;      Locals:         0       0       0
  3941 ;;      Temps:          0       0       0
  3942 ;;      Totals:         0       0       0
  3943 ;;Total ram usage:        0 bytes
  3944 ;; Hardware stack levels used: 1
  3945 ;; This function calls:
  3946 ;;		Nothing
  3947 ;; This function is called by:
  3948 ;;		_ISR
  3949 ;; This function uses a non-reentrant model
  3950 ;;
  3951                           
  3952     07CB                     i1_Prepare_LCD_Pins:	
  3953                           ;psect for function i1_Prepare_LCD_Pins
  3954                           
  3955     07CB                     i1l1666:	
  3956                           ;incstack = 0
  3957                           ; Regs used in i1_Prepare_LCD_Pins: [status,2]
  3958                           
  3959                           
  3960                           ;env_maestro.c: 311:     TRISB = 0x00;
  3961     07CB  1683               	bsf	3,5	;RP0=1, select bank1
  3962     07CC  1303               	bcf	3,6	;RP1=0, select bank1
  3963     07CD  0186               	clrf	6	;volatile
  3964     07CE                     i1l188:
  3965     07CE  0008               	return
  3966     07CF                     __end_ofi1_Prepare_LCD_Pins:
  3967                           
  3968                           	psect	text23
  3969     06D1                     __ptext23:	
  3970 ;; *************** function i1_LCD_setCursor *****************
  3971 ;; Defined at:
  3972 ;;		line 254 in file "env_maestro.c"
  3973 ;; Parameters:    Size  Location     Type
  3974 ;;  row             1    wreg     unsigned char 
  3975 ;;  column          1    3[BANK0 ] unsigned char 
  3976 ;; Auto vars:     Size  Location     Type
  3977 ;;  row             1    4[BANK0 ] unsigned char 
  3978 ;;  position        1    7[BANK0 ] unsigned char 
  3979 ;; Return value:  Size  Location     Type
  3980 ;;                  1    wreg      void 
  3981 ;; Registers used:
  3982 ;;		wreg, status,2, status,0, btemp+1, pclath, cstack
  3983 ;; Tracked objects:
  3984 ;;		On entry : 0/0
  3985 ;;		On exit  : 0/0
  3986 ;;		Unchanged: 0/0
  3987 ;; Data sizes:     COMMON   BANK0   BANK1
  3988 ;;      Params:         0       1       0
  3989 ;;      Locals:         0       4       0
  3990 ;;      Temps:          0       0       0
  3991 ;;      Totals:         0       5       0
  3992 ;;Total ram usage:        5 bytes
  3993 ;; Hardware stack levels used: 1
  3994 ;; Hardware stack levels required when called: 1
  3995 ;; This function calls:
  3996 ;;		i1_LCD_command
  3997 ;; This function is called by:
  3998 ;;		_ISR
  3999 ;; This function uses a non-reentrant model
  4000 ;;
  4001                           
  4002     06D1                     i1_LCD_setCursor:	
  4003                           ;psect for function i1_LCD_setCursor
  4004                           
  4005                           
  4006                           ;incstack = 0
  4007                           ; Regs used in i1_LCD_setCursor: [wreg+status,2+status,0+btemp+1+pclath+cstack]
  4008                           ;i1LCD_setCursor@row stored from wreg
  4009     06D1  1283               	bcf	3,5	;RP0=0, select bank0
  4010     06D2  1303               	bcf	3,6	;RP1=0, select bank0
  4011     06D3  00A4               	movwf	i1LCD_setCursor@row
  4012     06D4                     i1l1640:
  4013                           
  4014                           ;env_maestro.c: 255:     unsigned char position = (row == 1) ? 0x80 : 0xC0;
  4015     06D4  0324               	decf	i1LCD_setCursor@row,w
  4016     06D5  1903               	btfsc	3,2
  4017     06D6  2ED8               	goto	u114_21
  4018     06D7  2ED9               	goto	u114_20
  4019     06D8                     u114_21:
  4020     06D8  2EDE               	goto	i1l1644
  4021     06D9                     u114_20:
  4022     06D9                     i1l1642:
  4023     06D9  30C0               	movlw	192
  4024     06DA  00A5               	movwf	i1_LCD_setCursor$303
  4025     06DB  3000               	movlw	0
  4026     06DC  00A6               	movwf	i1_LCD_setCursor$303+1
  4027     06DD  2EE2               	goto	i1l164
  4028     06DE                     i1l1644:
  4029     06DE  3080               	movlw	128
  4030     06DF  00A5               	movwf	i1_LCD_setCursor$303
  4031     06E0  3000               	movlw	0
  4032     06E1  00A6               	movwf	i1_LCD_setCursor$303+1
  4033     06E2                     i1l164:
  4034     06E2  0825               	movf	i1_LCD_setCursor$303,w
  4035     06E3  00A7               	movwf	i1LCD_setCursor@position
  4036     06E4                     i1l1646:
  4037                           
  4038                           ;env_maestro.c: 256:     position += column;
  4039     06E4  0823               	movf	i1LCD_setCursor@column,w
  4040     06E5  00FF               	movwf	btemp+1
  4041     06E6  087F               	movf	btemp+1,w
  4042     06E7  07A7               	addwf	i1LCD_setCursor@position,f
  4043     06E8                     i1l1648:
  4044                           
  4045                           ;env_maestro.c: 257:     LCD_command(position);
  4046     06E8  0827               	movf	i1LCD_setCursor@position,w
  4047     06E9  118A  2732  118A   	fcall	i1_LCD_command
  4048     06EC                     i1l165:
  4049     06EC  0008               	return
  4050     06ED                     __end_ofi1_LCD_setCursor:
  4051                           
  4052                           	psect	text24
  4053     0675                     __ptext24:	
  4054 ;; *************** function i1_LCD_print *****************
  4055 ;; Defined at:
  4056 ;;		line 260 in file "env_maestro.c"
  4057 ;; Parameters:    Size  Location     Type
  4058 ;;  string          2    3[BANK0 ] PTR const unsigned char 
  4059 ;;		 -> STR_3(13), ISR@receiveBuffer(16), STR_2(17), STR_1(8), 
  4060 ;;		 -> displayString(17), 
  4061 ;; Auto vars:     Size  Location     Type
  4062 ;;		None
  4063 ;; Return value:  Size  Location     Type
  4064 ;;                  1    wreg      void 
  4065 ;; Registers used:
  4066 ;;		wreg, fsr0l, fsr0h, status,2, status,0, btemp+1, pclath, cstack
  4067 ;; Tracked objects:
  4068 ;;		On entry : 0/0
  4069 ;;		On exit  : 0/0
  4070 ;;		Unchanged: 0/0
  4071 ;; Data sizes:     COMMON   BANK0   BANK1
  4072 ;;      Params:         0       2       0
  4073 ;;      Locals:         0       0       0
  4074 ;;      Temps:          0       0       0
  4075 ;;      Totals:         0       2       0
  4076 ;;Total ram usage:        2 bytes
  4077 ;; Hardware stack levels used: 1
  4078 ;; Hardware stack levels required when called: 1
  4079 ;; This function calls:
  4080 ;;		i1_LCD_data
  4081 ;; This function is called by:
  4082 ;;		_ISR
  4083 ;; This function uses a non-reentrant model
  4084 ;;
  4085                           
  4086     0675                     i1_LCD_print:	
  4087                           ;psect for function i1_LCD_print
  4088                           
  4089     0675                     i1l1650:	
  4090                           ;incstack = 0
  4091                           ; Regs used in i1_LCD_print: [wreg-fsr0h+status,2+status,0+btemp+1+pclath+cstack]
  4092                           
  4093                           
  4094                           ;env_maestro.c: 261:     while(*string) {
  4095     0675  2E88               	goto	i1l1656
  4096     0676                     i1l1652:
  4097                           
  4098                           ;env_maestro.c: 262:         LCD_data(*string++);
  4099     0676  0824               	movf	i1LCD_print@string+1,w
  4100     0677  00FF               	movwf	btemp+1
  4101     0678  0823               	movf	i1LCD_print@string,w
  4102     0679  0084               	movwf	4
  4103     067A  118A  2570  118A   	fcall	stringtab
  4104     067D  118A  271B  118A   	fcall	i1_LCD_data
  4105     0680                     i1l1654:
  4106     0680  3001               	movlw	1
  4107     0681  1283               	bcf	3,5	;RP0=0, select bank0
  4108     0682  1303               	bcf	3,6	;RP1=0, select bank0
  4109     0683  07A3               	addwf	i1LCD_print@string,f
  4110     0684  1803               	skipnc
  4111     0685  0AA4               	incf	i1LCD_print@string+1,f
  4112     0686  3000               	movlw	0
  4113     0687  07A4               	addwf	i1LCD_print@string+1,f
  4114     0688                     i1l1656:
  4115                           
  4116                           ;env_maestro.c: 261:     while(*string) {
  4117     0688  1283               	bcf	3,5	;RP0=0, select bank0
  4118     0689  1303               	bcf	3,6	;RP1=0, select bank0
  4119     068A  0824               	movf	i1LCD_print@string+1,w
  4120     068B  00FF               	movwf	btemp+1
  4121     068C  0823               	movf	i1LCD_print@string,w
  4122     068D  0084               	movwf	4
  4123     068E  118A  2570  118A   	fcall	stringtab
  4124     0691  3A00               	xorlw	0
  4125     0692  1D03               	skipz
  4126     0693  2E95               	goto	u115_21
  4127     0694  2E96               	goto	u115_20
  4128     0695                     u115_21:
  4129     0695  2E76               	goto	i1l1652
  4130     0696                     u115_20:
  4131     0696                     i1l171:
  4132     0696  0008               	return
  4133     0697                     __end_ofi1_LCD_print:
  4134                           
  4135                           	psect	text25
  4136     071B                     __ptext25:	
  4137 ;; *************** function i1_LCD_data *****************
  4138 ;; Defined at:
  4139 ;;		line 217 in file "env_maestro.c"
  4140 ;; Parameters:    Size  Location     Type
  4141 ;;  data            1    wreg     unsigned char 
  4142 ;; Auto vars:     Size  Location     Type
  4143 ;;  data            1    2[BANK0 ] unsigned char 
  4144 ;; Return value:  Size  Location     Type
  4145 ;;                  1    wreg      void 
  4146 ;; Registers used:
  4147 ;;		wreg
  4148 ;; Tracked objects:
  4149 ;;		On entry : 0/0
  4150 ;;		On exit  : 0/0
  4151 ;;		Unchanged: 0/0
  4152 ;; Data sizes:     COMMON   BANK0   BANK1
  4153 ;;      Params:         0       0       0
  4154 ;;      Locals:         0       1       0
  4155 ;;      Temps:          0       2       0
  4156 ;;      Totals:         0       3       0
  4157 ;;Total ram usage:        3 bytes
  4158 ;; Hardware stack levels used: 1
  4159 ;; This function calls:
  4160 ;;		Nothing
  4161 ;; This function is called by:
  4162 ;;		i1_LCD_print
  4163 ;; This function uses a non-reentrant model
  4164 ;;
  4165                           
  4166     071B                     i1_LCD_data:	
  4167                           ;psect for function i1_LCD_data
  4168                           
  4169                           
  4170                           ;incstack = 0
  4171                           ; Regs used in i1_LCD_data: [wreg]
  4172                           ;i1LCD_data@data stored from wreg
  4173     071B  1283               	bcf	3,5	;RP0=0, select bank0
  4174     071C  1303               	bcf	3,6	;RP1=0, select bank0
  4175     071D  00A2               	movwf	i1LCD_data@data
  4176     071E                     i1l1430:
  4177                           
  4178                           ;env_maestro.c: 218:     RA0 = 1;
  4179     071E  1405               	bsf	5,0	;volatile
  4180                           
  4181                           ;env_maestro.c: 219:     RA1 = 0;
  4182     071F  1085               	bcf	5,1	;volatile
  4183     0720                     i1l1432:
  4184                           
  4185                           ;env_maestro.c: 220:     PORTB = data;
  4186     0720  0822               	movf	i1LCD_data@data,w
  4187     0721  0086               	movwf	6	;volatile
  4188     0722                     i1l1434:
  4189                           
  4190                           ;env_maestro.c: 221:     RA2 = 1;
  4191     0722  1505               	bsf	5,2	;volatile
  4192                           
  4193                           ;env_maestro.c: 222:     _delay((unsigned long)((2)*(4000000/4000.0)));
  4194     0723  3003               	movlw	3
  4195     0724  1283               	bcf	3,5	;RP0=0, select bank0
  4196     0725  1303               	bcf	3,6	;RP1=0, select bank0
  4197     0726  00A1               	movwf	??i1_LCD_data+1
  4198     0727  3097               	movlw	151
  4199     0728  00A0               	movwf	??i1_LCD_data
  4200     0729                     u191_27:
  4201     0729  0BA0               	decfsz	??i1_LCD_data,f
  4202     072A  2F29               	goto	u191_27
  4203     072B  0BA1               	decfsz	??i1_LCD_data+1,f
  4204     072C  2F29               	goto	u191_27
  4205     072D  0000               	nop
  4206     072E                     i1l1436:
  4207                           
  4208                           ;env_maestro.c: 223:     RA2 = 0;
  4209     072E  1283               	bcf	3,5	;RP0=0, select bank0
  4210     072F  1303               	bcf	3,6	;RP1=0, select bank0
  4211     0730  1105               	bcf	5,2	;volatile
  4212     0731                     i1l152:
  4213     0731  0008               	return
  4214     0732                     __end_ofi1_LCD_data:
  4215                           
  4216                           	psect	text26
  4217     076D                     __ptext26:	
  4218 ;; *************** function i1_LCD_clear *****************
  4219 ;; Defined at:
  4220 ;;		line 249 in file "env_maestro.c"
  4221 ;; Parameters:    Size  Location     Type
  4222 ;;		None
  4223 ;; Auto vars:     Size  Location     Type
  4224 ;;		None
  4225 ;; Return value:  Size  Location     Type
  4226 ;;                  1    wreg      void 
  4227 ;; Registers used:
  4228 ;;		wreg, status,2, status,0, pclath, cstack
  4229 ;; Tracked objects:
  4230 ;;		On entry : 0/0
  4231 ;;		On exit  : 0/0
  4232 ;;		Unchanged: 0/0
  4233 ;; Data sizes:     COMMON   BANK0   BANK1
  4234 ;;      Params:         0       0       0
  4235 ;;      Locals:         0       0       0
  4236 ;;      Temps:          0       2       0
  4237 ;;      Totals:         0       2       0
  4238 ;;Total ram usage:        2 bytes
  4239 ;; Hardware stack levels used: 1
  4240 ;; Hardware stack levels required when called: 1
  4241 ;; This function calls:
  4242 ;;		i1_LCD_command
  4243 ;; This function is called by:
  4244 ;;		_ISR
  4245 ;; This function uses a non-reentrant model
  4246 ;;
  4247                           
  4248     076D                     i1_LCD_clear:	
  4249                           ;psect for function i1_LCD_clear
  4250                           
  4251     076D                     i1l1636:	
  4252                           ;incstack = 0
  4253                           ; Regs used in i1_LCD_clear: [wreg+status,2+status,0+pclath+cstack]
  4254                           
  4255                           
  4256                           ;env_maestro.c: 250:     LCD_command(0x01);
  4257     076D  3001               	movlw	1
  4258     076E  118A  2732  118A   	fcall	i1_LCD_command
  4259     0771                     i1l1638:
  4260                           
  4261                           ;env_maestro.c: 251:     _delay((unsigned long)((2)*(4000000/4000.0)));
  4262     0771  3003               	movlw	3
  4263     0772  1283               	bcf	3,5	;RP0=0, select bank0
  4264     0773  1303               	bcf	3,6	;RP1=0, select bank0
  4265     0774  00A4               	movwf	??i1_LCD_clear+1
  4266     0775  3097               	movlw	151
  4267     0776  00A3               	movwf	??i1_LCD_clear
  4268     0777                     u192_27:
  4269     0777  0BA3               	decfsz	??i1_LCD_clear,f
  4270     0778  2F77               	goto	u192_27
  4271     0779  0BA4               	decfsz	??i1_LCD_clear+1,f
  4272     077A  2F77               	goto	u192_27
  4273     077B  0000               	nop
  4274     077C                     i1l158:
  4275     077C  0008               	return
  4276     077D                     __end_ofi1_LCD_clear:
  4277                           
  4278                           	psect	text27
  4279     0732                     __ptext27:	
  4280 ;; *************** function i1_LCD_command *****************
  4281 ;; Defined at:
  4282 ;;		line 208 in file "env_maestro.c"
  4283 ;; Parameters:    Size  Location     Type
  4284 ;;  command         1    wreg     unsigned char 
  4285 ;; Auto vars:     Size  Location     Type
  4286 ;;  command         1    2[BANK0 ] unsigned char 
  4287 ;; Return value:  Size  Location     Type
  4288 ;;                  1    wreg      void 
  4289 ;; Registers used:
  4290 ;;		wreg
  4291 ;; Tracked objects:
  4292 ;;		On entry : 0/0
  4293 ;;		On exit  : 0/0
  4294 ;;		Unchanged: 0/0
  4295 ;; Data sizes:     COMMON   BANK0   BANK1
  4296 ;;      Params:         0       0       0
  4297 ;;      Locals:         0       1       0
  4298 ;;      Temps:          0       2       0
  4299 ;;      Totals:         0       3       0
  4300 ;;Total ram usage:        3 bytes
  4301 ;; Hardware stack levels used: 1
  4302 ;; This function calls:
  4303 ;;		Nothing
  4304 ;; This function is called by:
  4305 ;;		i1_LCD_clear
  4306 ;;		i1_LCD_setCursor
  4307 ;; This function uses a non-reentrant model
  4308 ;;
  4309                           
  4310     0732                     i1_LCD_command:	
  4311                           ;psect for function i1_LCD_command
  4312                           
  4313                           
  4314                           ;incstack = 0
  4315                           ; Regs used in i1_LCD_command: [wreg]
  4316                           ;i1LCD_command@command stored from wreg
  4317     0732  1283               	bcf	3,5	;RP0=0, select bank0
  4318     0733  1303               	bcf	3,6	;RP1=0, select bank0
  4319     0734  00A2               	movwf	i1LCD_command@command
  4320     0735                     i1l1422:
  4321                           
  4322                           ;env_maestro.c: 209:     RA0 = 0;
  4323     0735  1005               	bcf	5,0	;volatile
  4324                           
  4325                           ;env_maestro.c: 210:     RA1 = 0;
  4326     0736  1085               	bcf	5,1	;volatile
  4327     0737                     i1l1424:
  4328                           
  4329                           ;env_maestro.c: 211:     PORTB = command;
  4330     0737  0822               	movf	i1LCD_command@command,w
  4331     0738  0086               	movwf	6	;volatile
  4332     0739                     i1l1426:
  4333                           
  4334                           ;env_maestro.c: 212:     RA2 = 1;
  4335     0739  1505               	bsf	5,2	;volatile
  4336                           
  4337                           ;env_maestro.c: 213:     _delay((unsigned long)((2)*(4000000/4000.0)));
  4338     073A  3003               	movlw	3
  4339     073B  1283               	bcf	3,5	;RP0=0, select bank0
  4340     073C  1303               	bcf	3,6	;RP1=0, select bank0
  4341     073D  00A1               	movwf	??i1_LCD_command+1
  4342     073E  3097               	movlw	151
  4343     073F  00A0               	movwf	??i1_LCD_command
  4344     0740                     u193_27:
  4345     0740  0BA0               	decfsz	??i1_LCD_command,f
  4346     0741  2F40               	goto	u193_27
  4347     0742  0BA1               	decfsz	??i1_LCD_command+1,f
  4348     0743  2F40               	goto	u193_27
  4349     0744  0000               	nop
  4350     0745                     i1l1428:
  4351                           
  4352                           ;env_maestro.c: 214:     RA2 = 0;
  4353     0745  1283               	bcf	3,5	;RP0=0, select bank0
  4354     0746  1303               	bcf	3,6	;RP1=0, select bank0
  4355     0747  1105               	bcf	5,2	;volatile
  4356     0748                     i1l149:
  4357     0748  0008               	return
  4358     0749                     __end_ofi1_LCD_command:
  4359                           
  4360                           	psect	text28
  4361     0795                     __ptext28:	
  4362 ;; *************** function i1_Keyboard_init *****************
  4363 ;; Defined at:
  4364 ;;		line 268 in file "env_maestro.c"
  4365 ;; Parameters:    Size  Location     Type
  4366 ;;		None
  4367 ;; Auto vars:     Size  Location     Type
  4368 ;;		None
  4369 ;; Return value:  Size  Location     Type
  4370 ;;                  1    wreg      void 
  4371 ;; Registers used:
  4372 ;;		wreg, status,2
  4373 ;; Tracked objects:
  4374 ;;		On entry : 0/0
  4375 ;;		On exit  : 0/0
  4376 ;;		Unchanged: 0/0
  4377 ;; Data sizes:     COMMON   BANK0   BANK1
  4378 ;;      Params:         0       0       0
  4379 ;;      Locals:         0       0       0
  4380 ;;      Temps:          0       0       0
  4381 ;;      Totals:         0       0       0
  4382 ;;Total ram usage:        0 bytes
  4383 ;; Hardware stack levels used: 1
  4384 ;; This function calls:
  4385 ;;		Nothing
  4386 ;; This function is called by:
  4387 ;;		_ISR
  4388 ;; This function uses a non-reentrant model
  4389 ;;
  4390                           
  4391     0795                     i1_Keyboard_init:	
  4392                           ;psect for function i1_Keyboard_init
  4393                           
  4394     0795                     i1l1658:	
  4395                           ;incstack = 0
  4396                           ; Regs used in i1_Keyboard_init: [wreg+status,2]
  4397                           
  4398                           
  4399                           ;env_maestro.c: 269:     TRISAbits.TRISA3 = 0;
  4400     0795  1683               	bsf	3,5	;RP0=1, select bank1
  4401     0796  1303               	bcf	3,6	;RP1=0, select bank1
  4402     0797  1185               	bcf	5,3	;volatile
  4403     0798                     i1l1660:
  4404                           
  4405                           ;env_maestro.c: 270:     TRISA = 0x00;
  4406     0798  0185               	clrf	5	;volatile
  4407     0799                     i1l1662:
  4408                           
  4409                           ;env_maestro.c: 271:     TRISB = 0x0F;
  4410     0799  300F               	movlw	15
  4411     079A  0086               	movwf	6	;volatile
  4412     079B                     i1l1664:
  4413                           
  4414                           ;env_maestro.c: 272:     PORTB = 0xF0;
  4415     079B  30F0               	movlw	240
  4416     079C  1283               	bcf	3,5	;RP0=0, select bank0
  4417     079D  1303               	bcf	3,6	;RP1=0, select bank0
  4418     079E  0086               	movwf	6	;volatile
  4419     079F                     i1l174:
  4420     079F  0008               	return
  4421     07A0                     __end_ofi1_Keyboard_init:
  4422                           
  4423                           	psect	text29
  4424     05F9                     __ptext29:	
  4425 ;; *************** function i1_I2C_Master_Init *****************
  4426 ;; Defined at:
  4427 ;;		line 321 in file "env_maestro.c"
  4428 ;; Parameters:    Size  Location     Type
  4429 ;;  c               4   14[BANK0 ] const unsigned long 
  4430 ;; Auto vars:     Size  Location     Type
  4431 ;;		None
  4432 ;; Return value:  Size  Location     Type
  4433 ;;                  1    wreg      void 
  4434 ;; Registers used:
  4435 ;;		wreg, status,2, status,0, btemp+1, pclath, cstack
  4436 ;; Tracked objects:
  4437 ;;		On entry : 0/0
  4438 ;;		On exit  : 0/0
  4439 ;;		Unchanged: 0/0
  4440 ;; Data sizes:     COMMON   BANK0   BANK1
  4441 ;;      Params:         0       4       0
  4442 ;;      Locals:         0       0       0
  4443 ;;      Temps:          0       4       0
  4444 ;;      Totals:         0       8       0
  4445 ;;Total ram usage:        8 bytes
  4446 ;; Hardware stack levels used: 1
  4447 ;; Hardware stack levels required when called: 1
  4448 ;; This function calls:
  4449 ;;		i1___lldiv
  4450 ;; This function is called by:
  4451 ;;		_ISR
  4452 ;; This function uses a non-reentrant model
  4453 ;;
  4454                           
  4455     05F9                     i1_I2C_Master_Init:	
  4456                           ;psect for function i1_I2C_Master_Init
  4457                           
  4458     05F9                     i1l1668:	
  4459                           ;incstack = 0
  4460                           ; Regs used in i1_I2C_Master_Init: [wreg+status,2+status,0+btemp+1+pclath+cstack]
  4461                           
  4462                           
  4463                           ;env_maestro.c: 322:     SSPCON = 0b00101000;
  4464     05F9  3028               	movlw	40
  4465     05FA  1283               	bcf	3,5	;RP0=0, select bank0
  4466     05FB  1303               	bcf	3,6	;RP1=0, select bank0
  4467     05FC  0094               	movwf	20	;volatile
  4468     05FD                     i1l1670:
  4469                           
  4470                           ;env_maestro.c: 323:    SSPADD = (unsigned char)((4000000 / (4 * c)) - 1);
  4471     05FD  082E               	movf	i1I2C_Master_Init@c,w
  4472     05FE  00B2               	movwf	??i1_I2C_Master_Init
  4473     05FF  082F               	movf	i1I2C_Master_Init@c+1,w
  4474     0600  00B3               	movwf	??i1_I2C_Master_Init+1
  4475     0601  0830               	movf	i1I2C_Master_Init@c+2,w
  4476     0602  00B4               	movwf	??i1_I2C_Master_Init+2
  4477     0603  0831               	movf	i1I2C_Master_Init@c+3,w
  4478     0604  00B5               	movwf	??i1_I2C_Master_Init+3
  4479     0605  3002               	movlw	2
  4480     0606                     u116_25:
  4481     0606  1003               	clrc
  4482     0607  0DB2               	rlf	??i1_I2C_Master_Init,f
  4483     0608  0DB3               	rlf	??i1_I2C_Master_Init+1,f
  4484     0609  0DB4               	rlf	??i1_I2C_Master_Init+2,f
  4485     060A  0DB5               	rlf	??i1_I2C_Master_Init+3,f
  4486     060B                     u116_20:
  4487     060B  3EFF               	addlw	-1
  4488     060C  1D03               	skipz
  4489     060D  2E06               	goto	u116_25
  4490     060E  0835               	movf	??i1_I2C_Master_Init+3,w
  4491     060F  00A3               	movwf	i1___lldiv@divisor+3
  4492     0610  0834               	movf	??i1_I2C_Master_Init+2,w
  4493     0611  00A2               	movwf	i1___lldiv@divisor+2
  4494     0612  0833               	movf	??i1_I2C_Master_Init+1,w
  4495     0613  00A1               	movwf	i1___lldiv@divisor+1
  4496     0614  0832               	movf	??i1_I2C_Master_Init,w
  4497     0615  00A0               	movwf	i1___lldiv@divisor
  4498     0616  3000               	movlw	0
  4499     0617  00A7               	movwf	i1___lldiv@dividend+3
  4500     0618  303D               	movlw	61
  4501     0619  00A6               	movwf	i1___lldiv@dividend+2
  4502     061A  3009               	movlw	9
  4503     061B  00A5               	movwf	i1___lldiv@dividend+1
  4504     061C  3000               	movlw	0
  4505     061D  00A4               	movwf	i1___lldiv@dividend
  4506     061E  118A  24BB  118A   	fcall	i1___lldiv
  4507     0621  1283               	bcf	3,5	;RP0=0, select bank0
  4508     0622  1303               	bcf	3,6	;RP1=0, select bank0
  4509     0623  0820               	movf	?i1___lldiv,w
  4510     0624  3EFF               	addlw	255
  4511     0625  1683               	bsf	3,5	;RP0=1, select bank1
  4512     0626  1303               	bcf	3,6	;RP1=0, select bank1
  4513     0627  0093               	movwf	19	;volatile
  4514     0628                     i1l1672:
  4515                           
  4516                           ;env_maestro.c: 325:     SSPSTAT = 0x00;
  4517     0628  0194               	clrf	20	;volatile
  4518     0629                     i1l1674:
  4519                           
  4520                           ;env_maestro.c: 326:     TRISC3 = 1;
  4521     0629  1587               	bsf	7,3	;volatile
  4522     062A                     i1l1676:
  4523                           
  4524                           ;env_maestro.c: 327:     TRISC4 = 1;
  4525     062A  1607               	bsf	7,4	;volatile
  4526     062B                     i1l194:
  4527     062B  0008               	return
  4528     062C                     __end_ofi1_I2C_Master_Init:
  4529                           
  4530                           	psect	text30
  4531     04BB                     __ptext30:	
  4532 ;; *************** function i1___lldiv *****************
  4533 ;; Defined at:
  4534 ;;		line 5 in file "C:\Program Files\Microchip\xc8\v2.46\pic\sources\c99\common\__lldiv.c"
  4535 ;; Parameters:    Size  Location     Type
  4536 ;;  divisor         4    0[BANK0 ] unsigned long 
  4537 ;;  dividend        4    4[BANK0 ] unsigned long 
  4538 ;; Auto vars:     Size  Location     Type
  4539 ;;  quotient        4    9[BANK0 ] unsigned long 
  4540 ;;  counter         1   13[BANK0 ] unsigned char 
  4541 ;; Return value:  Size  Location     Type
  4542 ;;                  4    0[BANK0 ] unsigned long 
  4543 ;; Registers used:
  4544 ;;		wreg, status,2, status,0, btemp+1
  4545 ;; Tracked objects:
  4546 ;;		On entry : 0/0
  4547 ;;		On exit  : 0/0
  4548 ;;		Unchanged: 0/0
  4549 ;; Data sizes:     COMMON   BANK0   BANK1
  4550 ;;      Params:         0       8       0
  4551 ;;      Locals:         0       5       0
  4552 ;;      Temps:          0       1       0
  4553 ;;      Totals:         0      14       0
  4554 ;;Total ram usage:       14 bytes
  4555 ;; Hardware stack levels used: 1
  4556 ;; This function calls:
  4557 ;;		Nothing
  4558 ;; This function is called by:
  4559 ;;		i1_I2C_Master_Init
  4560 ;; This function uses a non-reentrant model
  4561 ;;
  4562                           
  4563     04BB                     i1___lldiv:	
  4564                           ;psect for function i1___lldiv
  4565                           
  4566     04BB                     i1l1438:	
  4567                           ;incstack = 0
  4568                           ; Regs used in i1___lldiv: [wreg+status,2+status,0+btemp+1]
  4569                           
  4570     04BB  3000               	movlw	0
  4571     04BC  1283               	bcf	3,5	;RP0=0, select bank0
  4572     04BD  1303               	bcf	3,6	;RP1=0, select bank0
  4573     04BE  00AC               	movwf	i1___lldiv@quotient+3
  4574     04BF  3000               	movlw	0
  4575     04C0  00AB               	movwf	i1___lldiv@quotient+2
  4576     04C1  3000               	movlw	0
  4577     04C2  00AA               	movwf	i1___lldiv@quotient+1
  4578     04C3  3000               	movlw	0
  4579     04C4  00A9               	movwf	i1___lldiv@quotient
  4580     04C5  0823               	movf	i1___lldiv@divisor+3,w
  4581     04C6  0422               	iorwf	i1___lldiv@divisor+2,w
  4582     04C7  0421               	iorwf	i1___lldiv@divisor+1,w
  4583     04C8  0420               	iorwf	i1___lldiv@divisor,w
  4584     04C9  1903               	skipnz
  4585     04CA  2CCC               	goto	u89_21
  4586     04CB  2CCD               	goto	u89_20
  4587     04CC                     u89_21:
  4588     04CC  2D1A               	goto	i1l1460
  4589     04CD                     u89_20:
  4590     04CD                     i1l1440:
  4591     04CD  01AD               	clrf	i1___lldiv@counter
  4592     04CE  0AAD               	incf	i1___lldiv@counter,f
  4593     04CF  2CDD               	goto	i1l1446
  4594     04D0                     i1l1442:
  4595     04D0  3001               	movlw	1
  4596     04D1  00A8               	movwf	??i1___lldiv
  4597     04D2                     u90_25:
  4598     04D2  1003               	clrc
  4599     04D3  0DA0               	rlf	i1___lldiv@divisor,f
  4600     04D4  0DA1               	rlf	i1___lldiv@divisor+1,f
  4601     04D5  0DA2               	rlf	i1___lldiv@divisor+2,f
  4602     04D6  0DA3               	rlf	i1___lldiv@divisor+3,f
  4603     04D7  0BA8               	decfsz	??i1___lldiv,f
  4604     04D8  2CD2               	goto	u90_25
  4605     04D9                     i1l1444:
  4606     04D9  3001               	movlw	1
  4607     04DA  00FF               	movwf	btemp+1
  4608     04DB  087F               	movf	btemp+1,w
  4609     04DC  07AD               	addwf	i1___lldiv@counter,f
  4610     04DD                     i1l1446:
  4611     04DD  1FA3               	btfss	i1___lldiv@divisor+3,7
  4612     04DE  2CE0               	goto	u91_21
  4613     04DF  2CE1               	goto	u91_20
  4614     04E0                     u91_21:
  4615     04E0  2CD0               	goto	i1l1442
  4616     04E1                     u91_20:
  4617     04E1                     i1l1448:
  4618     04E1  3001               	movlw	1
  4619     04E2  00A8               	movwf	??i1___lldiv
  4620     04E3                     u92_25:
  4621     04E3  1003               	clrc
  4622     04E4  0DA9               	rlf	i1___lldiv@quotient,f
  4623     04E5  0DAA               	rlf	i1___lldiv@quotient+1,f
  4624     04E6  0DAB               	rlf	i1___lldiv@quotient+2,f
  4625     04E7  0DAC               	rlf	i1___lldiv@quotient+3,f
  4626     04E8  0BA8               	decfsz	??i1___lldiv,f
  4627     04E9  2CE3               	goto	u92_25
  4628     04EA                     i1l1450:
  4629     04EA  0823               	movf	i1___lldiv@divisor+3,w
  4630     04EB  0227               	subwf	i1___lldiv@dividend+3,w
  4631     04EC  1D03               	skipz
  4632     04ED  2CF8               	goto	u93_25
  4633     04EE  0822               	movf	i1___lldiv@divisor+2,w
  4634     04EF  0226               	subwf	i1___lldiv@dividend+2,w
  4635     04F0  1D03               	skipz
  4636     04F1  2CF8               	goto	u93_25
  4637     04F2  0821               	movf	i1___lldiv@divisor+1,w
  4638     04F3  0225               	subwf	i1___lldiv@dividend+1,w
  4639     04F4  1D03               	skipz
  4640     04F5  2CF8               	goto	u93_25
  4641     04F6  0820               	movf	i1___lldiv@divisor,w
  4642     04F7  0224               	subwf	i1___lldiv@dividend,w
  4643     04F8                     u93_25:
  4644     04F8  1C03               	skipc
  4645     04F9  2CFB               	goto	u93_21
  4646     04FA  2CFC               	goto	u93_20
  4647     04FB                     u93_21:
  4648     04FB  2D0B               	goto	i1l1456
  4649     04FC                     u93_20:
  4650     04FC                     i1l1452:
  4651     04FC  0820               	movf	i1___lldiv@divisor,w
  4652     04FD  02A4               	subwf	i1___lldiv@dividend,f
  4653     04FE  0821               	movf	i1___lldiv@divisor+1,w
  4654     04FF  1C03               	skipc
  4655     0500  0F21               	incfsz	i1___lldiv@divisor+1,w
  4656     0501  02A5               	subwf	i1___lldiv@dividend+1,f
  4657     0502  0822               	movf	i1___lldiv@divisor+2,w
  4658     0503  1C03               	skipc
  4659     0504  0F22               	incfsz	i1___lldiv@divisor+2,w
  4660     0505  02A6               	subwf	i1___lldiv@dividend+2,f
  4661     0506  0823               	movf	i1___lldiv@divisor+3,w
  4662     0507  1C03               	skipc
  4663     0508  0F23               	incfsz	i1___lldiv@divisor+3,w
  4664     0509  02A7               	subwf	i1___lldiv@dividend+3,f
  4665     050A                     i1l1454:
  4666     050A  1429               	bsf	i1___lldiv@quotient,0
  4667     050B                     i1l1456:
  4668     050B  3001               	movlw	1
  4669     050C                     u94_25:
  4670     050C  1003               	clrc
  4671     050D  0CA3               	rrf	i1___lldiv@divisor+3,f
  4672     050E  0CA2               	rrf	i1___lldiv@divisor+2,f
  4673     050F  0CA1               	rrf	i1___lldiv@divisor+1,f
  4674     0510  0CA0               	rrf	i1___lldiv@divisor,f
  4675     0511  3EFF               	addlw	-1
  4676     0512  1D03               	skipz
  4677     0513  2D0C               	goto	u94_25
  4678     0514                     i1l1458:
  4679     0514  3001               	movlw	1
  4680     0515  02AD               	subwf	i1___lldiv@counter,f
  4681     0516  1D03               	btfss	3,2
  4682     0517  2D19               	goto	u95_21
  4683     0518  2D1A               	goto	u95_20
  4684     0519                     u95_21:
  4685     0519  2CE1               	goto	i1l1448
  4686     051A                     u95_20:
  4687     051A                     i1l1460:
  4688     051A  082C               	movf	i1___lldiv@quotient+3,w
  4689     051B  00A3               	movwf	?i1___lldiv+3
  4690     051C  082B               	movf	i1___lldiv@quotient+2,w
  4691     051D  00A2               	movwf	?i1___lldiv+2
  4692     051E  082A               	movf	i1___lldiv@quotient+1,w
  4693     051F  00A1               	movwf	?i1___lldiv+1
  4694     0520  0829               	movf	i1___lldiv@quotient,w
  4695     0521  00A0               	movwf	?i1___lldiv
  4696     0522                     i1l356:
  4697     0522  0008               	return
  4698     0523                     __end_ofi1___lldiv:
  4699     007E                     btemp	set	126	;btemp
  4700     007E                     wtemp0	set	126
  4701                           
  4702                           	psect	config
  4703                           
  4704                           ;Config register CONFIG @ 0x2007
  4705                           ;	Oscillator Selection bits
  4706                           ;	FOSC = XT, XT oscillator
  4707                           ;	Watchdog Timer Enable bit
  4708                           ;	WDTE = OFF, WDT disabled
  4709                           ;	Power-up Timer Enable bit
  4710                           ;	PWRTE = OFF, PWRT disabled
  4711                           ;	Brown-out Reset Enable bit
  4712                           ;	BOREN = ON, BOR enabled
  4713                           ;	Low-Voltage (Single-Supply) In-Circuit Serial Programming Enable bit
  4714                           ;	LVP = OFF, RB3 is digital I/O, HV on MCLR must be used for programming
  4715                           ;	Data EEPROM Memory Code Protection bit
  4716                           ;	CPD = OFF, Data EEPROM code protection off
  4717                           ;	Flash Program Memory Write Enable bits
  4718                           ;	WRT = OFF, Write protection off; all program memory may be written to by EECON control
  4719                           ;	In-Circuit Debugger Mode bit
  4720                           ;	DEBUG = OFF, In-Circuit Debugger disabled, RB6 and RB7 are general purpose I/O pins
  4721                           ;	Flash Program Memory Code Protection bit
  4722                           ;	CP = OFF, Code protection off
  4723     2007                     	org	8199
  4724     2007  3F79               	dw	16249

Data Sizes:
    Strings     38
    Constant    16
    Data        0
    BSS         44
    Persistent  0
    Stack       0

Auto Spaces:
    Space          Size  Autos    Used
    COMMON            0      0       0
    BANK0            94     44      62
    BANK1            94     22      48

Pointer List with Targets:

    atoi@s	PTR const unsigned char  size(1) Largest target is 4
		 -> asciiValue(BANK1[4]), 

    LCD_print@string	PTR const unsigned char  size(2) Largest target is 17
		 -> displayString(BANK1[17]), ISR@receiveBuffer(BANK0[16]), STR_1(CODE[8]), STR_2(CODE[17]), 
		 -> STR_3(CODE[13]), 

    memset@dest	PTR void  size(1) Largest target is 17
		 -> displayString(BANK1[17]), 

    memset@p	PTR unsigned char  size(1) Largest target is 17
		 -> displayString(BANK1[17]), 

    sp__memset	PTR void  size(1) Largest target is 17
		 -> displayString(BANK1[17]), 


Critical Paths under _main in COMMON

    None.

Critical Paths under _ISR in COMMON

    None.

Critical Paths under _main in BANK0

    _main->_atoi
    _atoi->___wmul
    _LCD_setCursor->_LCD_command
    _LCD_print->_LCD_data
    _LCD_init->_LCD_command
    _LCD_clear->_LCD_command
    _I2C_Master_Init->___lldiv

Critical Paths under _ISR in BANK0

    _ISR->i1_I2C_Master_Init
    i1_LCD_setCursor->i1_LCD_command
    i1_LCD_print->i1_LCD_data
    i1_LCD_clear->i1_LCD_command
    i1_I2C_Master_Init->i1___lldiv

Critical Paths under _main in BANK1

    _main->_I2C_Master_Init

Critical Paths under _ISR in BANK1

    None.

Call Graph Tables:

 ---------------------------------------------------------------------------------
 (Depth) Function   	        Calls       Base Space   Used Autos Params    Refs
 ---------------------------------------------------------------------------------
 (0) _main                                                14    14      0    3602
                                              8 BANK1     14    14      0
                    _I2C_Master_Init
                   _I2C_Master_Start
                    _I2C_Master_Stop
                   _I2C_Master_Write
                     _I2C_Slave_Init
                      _Keyboard_init
                          _LCD_clear
                           _LCD_init
                          _LCD_print
                      _LCD_setCursor
                _Prepare_Keypad_Pins
                   _Prepare_LCD_Pins
                        _Read_Keypad
                               _atoi
                             _memset
 ---------------------------------------------------------------------------------
 (1) _memset                                               6     2      4     281
                                             30 BANK0      6     2      4
 ---------------------------------------------------------------------------------
 (1) _atoi                                                 8     6      2     505
                                             36 BANK0      8     6      2
                             ___wmul
 ---------------------------------------------------------------------------------
 (2) ___wmul                                               6     2      4     244
                                             30 BANK0      6     2      4
 ---------------------------------------------------------------------------------
 (1) _Read_Keypad                                          6     6      0     202
                                             30 BANK0      6     6      0
 ---------------------------------------------------------------------------------
 (1) _Prepare_LCD_Pins                                     0     0      0       0
 ---------------------------------------------------------------------------------
 (1) _Prepare_Keypad_Pins                                  0     0      0       0
 ---------------------------------------------------------------------------------
 (1) _LCD_setCursor                                        5     4      1     594
                                             33 BANK0      5     4      1
                        _LCD_command
 ---------------------------------------------------------------------------------
 (1) _LCD_print                                            2     0      2     471
                                             33 BANK0      2     0      2
                           _LCD_data
 ---------------------------------------------------------------------------------
 (2) _LCD_data                                             3     3      0      22
                                             30 BANK0      3     3      0
 ---------------------------------------------------------------------------------
 (1) _LCD_init                                             2     2      0      22
                                             33 BANK0      2     2      0
                        _LCD_command
 ---------------------------------------------------------------------------------
 (1) _LCD_clear                                            2     2      0      22
                                             33 BANK0      2     2      0
                        _LCD_command
 ---------------------------------------------------------------------------------
 (2) _LCD_command                                          3     3      0      22
                                             30 BANK0      3     3      0
 ---------------------------------------------------------------------------------
 (1) _Keyboard_init                                        0     0      0       0
 ---------------------------------------------------------------------------------
 (1) _I2C_Slave_Init                                       1     1      0      22
                                             30 BANK0      1     1      0
 ---------------------------------------------------------------------------------
 (1) _I2C_Master_Write                                     2     0      2     250
                                             30 BANK0      2     0      2
                    _I2C_Master_Wait
 ---------------------------------------------------------------------------------
 (1) _I2C_Master_Stop                                      0     0      0       0
                    _I2C_Master_Wait
 ---------------------------------------------------------------------------------
 (1) _I2C_Master_Start                                     0     0      0       0
                    _I2C_Master_Wait
 ---------------------------------------------------------------------------------
 (2) _I2C_Master_Wait                                      0     0      0       0
 ---------------------------------------------------------------------------------
 (1) _I2C_Master_Init                                      8     4      4     490
                                              0 BANK1      8     4      4
                            ___lldiv
 ---------------------------------------------------------------------------------
 (2) ___lldiv                                             14     6      8     314
                                             30 BANK0     14     6      8
 ---------------------------------------------------------------------------------
 Estimated maximum stack depth 2
 ---------------------------------------------------------------------------------
 (Depth) Function   	        Calls       Base Space   Used Autos Params    Refs
 ---------------------------------------------------------------------------------
 (3) _ISR                                                  8     8      0     614
                                             22 BANK0      8     8      0
                  i1_I2C_Master_Init
                    i1_Keyboard_init
                        i1_LCD_clear
                        i1_LCD_print
                    i1_LCD_setCursor
                 i1_Prepare_LCD_Pins
 ---------------------------------------------------------------------------------
 (4) i1_Prepare_LCD_Pins                                   0     0      0       0
 ---------------------------------------------------------------------------------
 (4) i1_LCD_setCursor                                      5     4      1     166
                                              3 BANK0      5     4      1
                      i1_LCD_command
 ---------------------------------------------------------------------------------
 (4) i1_LCD_print                                          2     0      2     119
                                              3 BANK0      2     0      2
                         i1_LCD_data
 ---------------------------------------------------------------------------------
 (5) i1_LCD_data                                           3     3      0      22
                                              0 BANK0      3     3      0
 ---------------------------------------------------------------------------------
 (4) i1_LCD_clear                                          2     2      0      22
                                              3 BANK0      2     2      0
                      i1_LCD_command
 ---------------------------------------------------------------------------------
 (5) i1_LCD_command                                        3     3      0      22
                                              0 BANK0      3     3      0
 ---------------------------------------------------------------------------------
 (4) i1_Keyboard_init                                      0     0      0       0
 ---------------------------------------------------------------------------------
 (4) i1_I2C_Master_Init                                    8     4      4     262
                                             14 BANK0      8     4      4
                          i1___lldiv
 ---------------------------------------------------------------------------------
 (5) i1___lldiv                                           14     6      8     214
                                              0 BANK0     14     6      8
 ---------------------------------------------------------------------------------
 Estimated maximum stack depth 5
 ---------------------------------------------------------------------------------

 Call Graph Graphs:

 _main (ROOT)
   _I2C_Master_Init
     ___lldiv
   _I2C_Master_Start
     _I2C_Master_Wait
   _I2C_Master_Stop
     _I2C_Master_Wait
   _I2C_Master_Write
     _I2C_Master_Wait
   _I2C_Slave_Init
   _Keyboard_init
   _LCD_clear
     _LCD_command
   _LCD_init
     _LCD_command
   _LCD_print
     _LCD_data
   _LCD_setCursor
     _LCD_command
   _Prepare_Keypad_Pins
   _Prepare_LCD_Pins
   _Read_Keypad
   _atoi
     ___wmul
   _memset

 _ISR (ROOT)
   i1_I2C_Master_Init
     i1___lldiv
   i1_Keyboard_init
   i1_LCD_clear
     i1_LCD_command
   i1_LCD_print
     i1_LCD_data
   i1_LCD_setCursor
     i1_LCD_command
   i1_Prepare_LCD_Pins

 Address spaces:
Name               Size   Autos  Total    Cost      Usage
BITCOMMON            0      0       0       0        0.0%
EEDATA              80      0       0       0        0.0%
NULL                 0      0       0       0        0.0%
CODE                 0      0       0       0        0.0%
BITSFR0              0      0       0       1        0.0%
SFR0                 0      0       0       1        0.0%
COMMON               0      0       0       1        0.0%
BITSFR1              0      0       0       2        0.0%
SFR1                 0      0       0       2        0.0%
STACK                0      0       0       2        0.0%
BITBANK0            5E      0       0       3        0.0%
BANK0               5E     2C      3E       4       66.0%
BITSFR3              0      0       0       4        0.0%
SFR3                 0      0       0       4        0.0%
BITBANK1            5E      0       0       5        0.0%
BITSFR2              0      0       0       5        0.0%
SFR2                 0      0       0       5        0.0%
BANK1               5E     16      30       6       51.1%
ABS                  0      0      6E       7        0.0%
DATA                 0      0      6E       8        0.0%


Microchip Technology PIC Macro Assembler V2.46 build 20240104201356 
Symbol Table                                                                                   Mon May 06 21:03:40 2024

       ?_Prepare_Keypad_Pins 0020                            pc 0002                  _SSPSTATbits 0094  
                         fsr 0004          ___wmul@multiplicand 0040                          l200 0789  
                        l203 07C6                          l123 025B                          l206 07BF  
                        l126 0199                          l152 0703                          l320 063A  
                        l209 07B8                          l217 075C                          l322 0652  
                        l155 056F                          l171 0674                          l164 06C6  
                        l149 071A                          l165 06D0                          l174 0794  
                        l158 076C                          l191 07A8                          l184 0392  
                        l185 03DA                          l194 05F8                          l356 04BA  
                        l188 07CA                          l792 0452                          l798 06B4  
                        _GIE 005F                          _RA0 0028                          _RA1 0029  
                        _RA2 002A                          _PEN 048A                          _ISR 0286  
                        u810 064E                          u811 064D                          u820 0465  
                        _SEN 0488                          u821 0464                          u805 0642  
                        u840 0479                          u760 0785                          u841 0478  
                        u761 0784                          u770 0789                          u835 046A  
                        u771 0788                          u860 0494                          u780 0634  
                        u861 0493                          u781 0633                          u855 047B  
                        u880 04B2                          u881 04B1                          u865 0490  
                        u970 0351                          u875 04A4                          u971 0350  
                        u795 063B                          u975 034D                          u984 035A  
                        u985 0358                          u994 037A                          u995 0378  
                        fsr0 0004                          indf 0000                         ?_ISR 0020  
                       l2000 013C                         l2010 015F                         l2002 0142  
                       l2100 026E                         l2012 0163                         l2004 014D  
                       l2020 016D                         l2030 018A                         l2022 0172  
                       l2006 0155                         l2014 0167                         l2102 0278  
                       l1400 0468                         l2040 019E                         l2032 018E  
                       l2024 0178                         l2016 016A                         l2008 0159  
                       l1410 0494                         l1402 0471                         l2050 01B7  
                       l2042 01A3                         l2026 017E                         l2034 0193  
                       l2018 016B                         l1412 04A2                         l1404 0475  
                       l1500 07A0                         l2060 01E4                         l2052 01BF  
                       l2044 01A6                         l2028 0184                         l1414 04A3  
                       l1406 0479                         l1510 0360                         l1502 0340  
                       l2070 0210                         l2062 01EA                         l2054 01CC  
                       l2046 01AC                         l2038 019B                         l1416 04AC  
                       l1408 0482                         l1600 075A                         l1360 0707  
                       l1520 0372                         l1512 0364                         l1504 0344  
                       l2072 0218                         l2064 01F2                         l2080 022C  
                       l2056 01D2                         l2048 01B1                         l1418 04B2  
                       l1602 075B                         l1362 0709                         l1370 06F2  
                       l1530 03A5                         l1514 036E                         l1610 03EF  
                       l2082 022F                         l2074 021E                         l2066 01FF  
                       l2058 01DF                         l1380 0785                         l1364 070B  
                       l1372 06F4                         l1524 0383                         l1508 0352  
                       l1612 03FA                         l1604 03DE                         l2084 0232  
                       l2076 0222                         l2068 0205                         l2092 024D  
                       l1550 07B1                         l1366 0717                         l1470 0533  
                       l1374 0700                         l1526 0393                         l1534 03B9  
                       l1542 03D9                         l1390 0648                         l1382 062C  
                       l1630 0442                         l1622 0412                         l1614 0402  
                       l1606 03E2                         l2086 0239                         l2078 0228  
                       l2094 025B                         l1376 077D                         l1552 07B4  
                       l1560 075D                         l1480 0564                         l1472 0537  
                       l1464 0523                         l1368 06F0                         l1536 03BF  
                       l1528 039E                         l1392 064E                         l1384 0630  
                       l1632 044E                         l1616 0404                         l1608 03E6  
                       l2096 025E                         l2088 0242                         l1378 077D  
                       l1546 07C0                         l1554 07B9                         l1482 078A  
                       l1562 0761                         l1474 0546                         l1466 0527  
                       l1570 06C8                         l1538 03CC                         l1386 0634  
                       l1626 0432                         l1618 0409                         l2098 0265  
                       l1396 0453                         l1548 07C3                         l1556 07BC  
                       l1484 078D                         l1476 0551                         l1468 0528  
                       l1580 0666                         l1572 06CC                         l1564 06B8  
                       l1388 0641                         l1628 043D                         l1398 0465  
                       l1590 074C                         l1486 078E                         l1478 0560  
                       l1574 0653                         l1566 06BD                         l1558 07C7  
                       l1582 069A                         l1920 05B6                         l1592 0754  
                       l1488 0790                         l1576 0654                         l1568 06C2  
                       l1584 069D                         l1922 05BA                         l1594 0757  
                       l1578 065E                         l1586 06A2                         l1930 0023  
                       l1924 05F5                         l1596 0758                         l1588 06A6  
                       l1940 0045                         l1932 0029                         l1926 05F6  
                       l1598 0759                         l1950 0079                         l1942 004A  
                       l1934 0036                         l1928 05F7                         l1960 009E  
                       l1952 0086                         l1944 0056                         l1936 0039  
                       l1970 00C9                         l1962 00A1                         l1954 0091  
                       l1946 005B                         l1938 003F                         l1972 00CC  
                       l1964 00AA                         l1956 0094                         l1948 0071  
                       l1980 00DD                         l1990 0103                         l1982 00E2  
                       l1974 00CD                         l1966 00B9                         l1958 0097  
                       l1992 0110                         l1984 00E8                         l1976 00CF  
                       l1968 00BC                         l1994 011F                         l1986 00ED  
                       l1978 00D3                         l1996 0127                         l1988 00F3  
                       l1998 012F                         STR_1 05AE                         STR_2 0590  
                       STR_3 05A1                 ?_LCD_command 0020                         u1000 0383  
                       u1001 0382                         u1020 0392                         u1100 0402  
                       u1021 0391                         u1101 0401                         u1014 0389  
                       u1110 0411                         u1015 0387                         u1111 0410  
                       u1040 03CC                         u1120 043D                         u1041 03CB  
                       u1121 043C                         u1050 06BD                         u1130 0442  
                       u1051 06BC                         u1035 03AA                         u1131 0441  
                       u1060 0674                         u1061 0673                         u1045 03C8  
                       u1070 06B4                         u1071 06B3                         u1080 03EF  
                       u1081 03EE                         u1090 03FA                         u1091 03F9  
                       u1510 05CA                         u1600 011F                         u1520 0045  
                       u1601 011E                         u1521 0044                         u1610 0127  
                       u1530 004A                         u1515 05C5                         u1611 0126  
                       u1531 0049                         u1700 01AC                         u1620 014D  
                       u1540 0086                         u1701 01AB                         u1621 014C  
                       u1605 011B                         u1541 0085                         u1710 01B7  
                       u1630 015F                         u1550 00E2                         u1711 01B6  
                       u1631 015E                         u1551 00E1                         u1720 01DF  
                       u1640 0172                         u1560 00E8                         u1721 01DE  
                       u1641 0171                         u1625 0149                         u1561 00E7  
                       u1545 0082                         u1730 01EA                         u1650 0178  
                       u1570 00ED                         u1731 01E9                         u1651 0177  
                       u1571 00EC                         u1740 0210                         u1660 017E  
                       u1580 00F3                         u1741 020F                         u1725 01DB  
                       u1661 017D                         u1581 00F2                         u1750 021E  
                       u1670 0184                         u1590 0110                         u1807 0399  
                       u1751 021D                         u1671 0183                         u1591 010F  
                       u1760 0228                         u1680 0198                         u1817 06FB  
                       u1761 0227                         u1745 020C                         u1681 0197  
                       u1690 01A3                         u1827 052F                         u1691 01A2  
                       u1595 010C                         u1837 053D                         u1847 054C  
                       u1857 055B                         u1777 00B2                         u1867 056A  
                       u1787 027E                         _PEIE 005E                         u1877 0767  
                       u1797 036A                         u1887 0712                         _RCEN 048B  
          ??i1_Keyboard_init 0000                  ?i1_LCD_data 0020                         _atoi 03DB  
          i1___lldiv@divisor 0020                         _main 0023                         btemp 007E  
          i1___lldiv@counter 002D            i1LCD_print@string 0023            ??i1_LCD_setCursor 0000  
                       start 0011        ??_Prepare_Keypad_Pins 0000   __end_ofi1_Prepare_LCD_Pins 07CF  
                      ??_ISR 0036                ??_Read_Keypad 003E             ?_I2C_Master_Init 00BA  
           ?_I2C_Master_Wait 0020             ?_I2C_Master_Stop 0020             __end_of_LCD_data 0704  
           __end_of_LCD_init 0570                        ?_atoi 0044                        ?_main 0020  
                      _ACKEN 048C                        _ACKDT 048D              __end_of___lldiv 04BB  
                      i1l152 0731                        i1l234 0336                        i1l171 0696  
                      i1l227 029C                        i1l164 06E2                        i1l149 0748  
                      i1l165 06EC                        i1l229 0333                        i1l174 079F  
                      i1l158 077C                        i1l194 062B                        i1l356 0522  
                      i1l188 07CE                        _PORTB 0006                 ?i1_LCD_clear 0020  
                      _TRISA 0085                        _TRISB 0086                        _SSPIE 0463  
                      _SSPIF 0063                        u90_25 04D2                        u91_20 04E1  
                      u91_21 04E0                        u92_25 04E3                        u93_20 04FC  
                      u93_21 04FB                        u93_25 04F8                        u94_25 050C  
                      u95_20 051A                        u95_21 0519                        u89_20 04CD  
                      u89_21 04CC                 ?i1_LCD_print 0023           i1___lldiv@dividend 0024  
                      atoi@n 0049                        atoi@s 004B                        main@i 00C5  
                      pclath 000A                        status 0003                        wtemp0 007E  
            __initialization 0013                 __end_of_atoi 0453                 __end_of_main 0286  
              _Keyboard_init 078A           i1___lldiv@quotient 0029                main@asciiCode 00C7  
                     ??_atoi 0046                       ??_main 00C2                _LCD_setCursor 06B5  
        __end_of_Read_Keypad 03DB            ?_I2C_Master_Start 0020            ?_I2C_Master_Write 003E  
          __end_of_LCD_clear 076D            __end_of_LCD_print 0675           ??_I2C_Master_Start 0000  
                     _ADCON1 009F           ??_I2C_Master_Write 0000             _Prepare_LCD_Pins 07C7  
                     i1l1422 0735                       i1l1430 071E                       i1l1440 04CD  
                     i1l1424 0737                       i1l1432 0720                       i1l1450 04EA  
                     i1l1442 04D0                       i1l1426 0739                       i1l1434 0722  
                     i1l1452 04FC                       i1l1444 04D9                       i1l1460 051A  
                     i1l1428 0745                       i1l1436 072E                       i1l1454 050A  
                     i1l1446 04DD                       i1l1438 04BB                       i1l1456 050B  
                     i1l1448 04E1                       i1l1640 06D4                       i1l1458 0514  
                     i1l1650 0675                       i1l1642 06D9                       i1l1660 0798  
                     i1l1636 076D                       i1l1652 0676                       i1l1644 06DE  
                     i1l1900 02F6                       i1l1670 05FD                       i1l1662 0799  
                     i1l1638 0771                       i1l1654 0680                       i1l1646 06E4  
                     i1l1910 0318                       i1l1902 02F9                       i1l1672 0628  
                     i1l1664 079B                       i1l1656 0688                       i1l1648 06E8  
                     u114_20 06D9                       i1l1912 031F                       i1l1904 0302  
                     u114_21 06D8                       i1l1674 0629                       i1l1658 0795  
                     i1l1666 07CB                       i1l1914 0322                       i1l1906 0306  
                     i1l1676 062A                       i1l1668 05F9                       i1l1916 0325  
                     i1l1908 0315                       i1l1918 0333                       i1l1870 028D  
                     u115_20 0696                       i1l1880 02B3                       i1l1872 0293  
                     i1l1864 0286                       u115_21 0695                       i1l1890 02D1  
                     i1l1882 02BB                       i1l1874 0297                       i1l1866 028A  
                     i1l1892 02D4                       i1l1884 02C1                       i1l1876 02A0  
                     i1l1868 028C                       i1l1894 02D7                       i1l1886 02C6  
                     i1l1878 02A4                       u116_20 060B                       i1l1896 02DE  
                     i1l1888 02CD                       i1l1898 02E7                       u116_25 0606  
                     u150_20 02CD                       u150_21 02CC                       u143_20 028A  
                     u143_21 0289                       u144_20 0293                       u144_21 0292  
                     u145_20 0297                       u145_21 0296                       u146_20 02A0  
                     u146_21 029F                       u147_20 02A4                       u147_21 02A3  
                     u148_20 02B3                       u148_21 02B2                       u148_25 02AF  
                     u149_20 02C6                       u149_21 02C5                       u190_27 030E  
                     u191_27 0729                       u192_27 0777                       u193_27 0740  
                     u189_27 02EF                       _SSPADD 0093                       _TRISC3 043B  
                     _TRISC4 043C                       _SSPCON 0014                       _SSPBUF 0013  
             ?_Keyboard_init 0020                       ___wmul 062C                    ??___lldiv 0046  
                     _memset 0697                 LCD_data@data 0040                       _teclas 0580  
             ?_LCD_setCursor 0041            __end_ofi1___lldiv 0523                       saved_w 007E  
    __end_of__initialization 0020                    ?_LCD_data 0020                    ?_LCD_init 0020  
             __pcstackCOMMON 0000                  _Read_Keypad 0340               i1LCD_data@data 0022  
            i1_Keyboard_init 0795              i1_LCD_setCursor 06D1        I2C_Slave_Init@address 003E  
                 __pbssBANK0 004C                   __pbssBANK1 00A0                 ??i1_LCD_data 0020  
              i1_LCD_command 0732                   ??_LCD_data 003E                   ??_LCD_init 0041  
            ??_Keyboard_init 0000                      ISR@temp 003D                   __pmaintext 0023  
                    ?___wmul 003E                   _asciiValue 00B6                   __pintentry 0004  
            ??_LCD_setCursor 0000                      ?_memset 003E           __end_ofi1_LCD_data 0732  
         i1_Prepare_LCD_Pins 07CB                      _SSPCON2 0091                      _SSPSTAT 0094  
                 __stringtab 0570          ?i1_Prepare_LCD_Pins 0020               ?i1_LCD_command 0020  
__end_of_Prepare_Keypad_Pins 07A9        i1LCD_setCursor@column 0023      __end_ofi1_Keyboard_init 07A0  
                    ___lldiv 0453         ??i1_Prepare_LCD_Pins 0000     __end_of_Prepare_LCD_Pins 07CB  
    __end_ofi1_LCD_setCursor 06ED                      __ptext1 0697                      __ptext2 03DB  
                    __ptext3 062C                      __ptext4 0340                      __ptext5 07C7  
                    __ptext6 07A0                      __ptext7 06B5                      __ptext8 0653  
                    __ptext9 06ED            i1_I2C_Master_Init 05F9           ?i1_I2C_Master_Init 002E  
                    atoi@neg 0048                      main@key 00CF                      clrloop0 07AA  
        ??i1_I2C_Master_Init 0032                    _LCD_clear 075D         end_of_initialization 0020  
          _LCD_setCursor$303 0043                    _LCD_print 0653                      memset@c 003E  
                    memset@n 0040                      memset@p 0043              ___lldiv@divisor 003E  
            ___lldiv@counter 004B              LCD_print@string 0041               _I2C_Slave_Init 0749  
           I2C_Master_Init@c 00BA    __end_ofi1_I2C_Master_Init 062C             ISR@receiveBuffer 004E  
                  _PORTAbits 0005                    _TRISAbits 0085                    i1___lldiv 04BB  
            ??i1_LCD_command 0020                   ?_LCD_clear 0020                   ?_LCD_print 0041  
     __end_of_I2C_Slave_Init 075D             ?i1_Keyboard_init 0020                 ?_Read_Keypad 0020  
             __end_of___wmul 0653             ?i1_LCD_setCursor 0023               __end_of_memset 06B5  
             __end_of_teclas 0590          start_initialization 0013                  __end_of_ISR 0340  
                 ?i1___lldiv 0020                ??_LCD_command 003E            ??_I2C_Master_Init 00BE  
          ??_I2C_Master_Wait 0000            ??_I2C_Master_Stop 0000              ?_I2C_Slave_Init 0020  
                   ??___wmul 0000                     ??_memset 0000                   memset@dest 0042  
           LCD_setCursor@row 0042      i1LCD_setCursor@position 0027                ??i1_LCD_clear 0023  
              ??i1_LCD_print 0000                    ___latbits 0001                __pcstackBANK0 0020  
              __pcstackBANK1 00BA         i1LCD_command@command 0022                  ??_LCD_clear 0041  
                ??_LCD_print 0000                    _charCount 00A2           i1I2C_Master_Init@c 002E  
           _I2C_Master_Start 07C0             _I2C_Master_Write 07B1          __end_of_LCD_command 071B  
                   ISR@index 004C                    _asciiMode 00A1        __end_of_Keyboard_init 0795  
                   ?___lldiv 003E                  _asciiDigits 00A0        __end_of_LCD_setCursor 06D1  
          ?_Prepare_LCD_Pins 0020                    __pstrings 0570           ??_Prepare_LCD_Pins 0000  
             _cursorPosition 00A3                  ??i1___lldiv 0028          __end_ofi1_LCD_clear 077D  
        __end_ofi1_LCD_print 0697            interrupt_function 0004               ___wmul@product 0042  
                   _LCD_data 06ED                     _LCD_init 0523                    clear_ram0 07A9  
                __stringbase 057F                    main@i_290 00CB                    main@i_291 00CD  
                  main@i_289 00C9            ___wmul@multiplier 003E        LCD_setCursor@position 0045  
                _LCD_command 0704                     _i2c_role 00A4           i1LCD_setCursor@row 0024  
        i1_LCD_setCursor$303 0025           __end_of__stringtab 0580                  i1_LCD_clear 076D  
            _I2C_Master_Init 05B6              _I2C_Master_Wait 077D              _I2C_Master_Stop 07B9  
                i1_LCD_print 0675                     __ptext10 0523                     __ptext11 075D  
                   __ptext20 0453                     __ptext12 0704                     __ptext21 0286  
                   __ptext13 078A                     __ptext30 04BB                     __ptext22 07CB  
                   __ptext14 0749                     __ptext23 06D1                     __ptext15 07B1  
                   __ptext24 0675                     __ptext16 07B9                     __ptext25 071B  
                   __ptext17 07C0                     __ptext26 076D                     __ptext18 077D  
                   __ptext27 0732                     __ptext19 05B6                     __ptext28 0795  
                   __ptext29 05F9        __end_ofi1_LCD_command 0749             ??_I2C_Slave_Init 0000  
   __end_of_I2C_Master_Start 07C7     __end_of_I2C_Master_Write 07B9           LCD_command@command 0040  
                   intlevel1 0000                   i1_LCD_data 071B             ___lldiv@dividend 0042  
                  stringcode 057A          LCD_setCursor@column 0041      __end_of_I2C_Master_Init 05F9  
    __end_of_I2C_Master_Wait 078A      __end_of_I2C_Master_Stop 07C0             ___lldiv@quotient 0047  
          I2C_Master_Write@d 003E                     stringdir 057A                     stringtab 0570  
        _Prepare_Keypad_Pins 07A0                _displayString 00A5               Read_Keypad@col 0042  
             Read_Keypad@row 0040                   _SSPCONbits 0014  
